Archive member included because of file (symbol)

C:\Users\Данила Кондрашов\AppData\Local\Temp\VMBuilds\LAB8_NEW\stm32duino_genericSTM32F103C6\Release\core.a(exc.S.o)
                              (__exc_nmi)
C:\Users\Данила Кондрашов\AppData\Local\Temp\VMBuilds\LAB8_NEW\stm32duino_genericSTM32F103C6\Release\core.a(isrs.S.o)
                              (__stm32reservedexception7)
C:\Users\Данила Кондрашов\AppData\Local\Temp\VMBuilds\LAB8_NEW\stm32duino_genericSTM32F103C6\Release\core.a(vector_table.S.o)
                              (__stm32_vector_table)
C:\Users\Данила Кондрашов\AppData\Local\Temp\VMBuilds\LAB8_NEW\stm32duino_genericSTM32F103C6\Release\core.a(adc.c.o)
                              C:\Users\Данила Кондрашов\AppData\Local\Temp\VMBCore\arduino16x\1ff78a0346523d7d91af874899f893a8\variant\wirish\boards.cpp.o (adc_set_sample_rate)
C:\Users\Данила Кондрашов\AppData\Local\Temp\VMBuilds\LAB8_NEW\stm32duino_genericSTM32F103C6\Release\core.a(adc_f1.c.o)
                              (__irq_adc)
C:\Users\Данила Кондрашов\AppData\Local\Temp\VMBuilds\LAB8_NEW\stm32duino_genericSTM32F103C6\Release\core.a(dma_f1.c.o)
                              (__irq_dma1_channel1)
C:\Users\Данила Кондрашов\AppData\Local\Temp\VMBuilds\LAB8_NEW\stm32duino_genericSTM32F103C6\Release\core.a(exti.c.o)
                              (__irq_exti0)
C:\Users\Данила Кондрашов\AppData\Local\Temp\VMBuilds\LAB8_NEW\stm32duino_genericSTM32F103C6\Release\core.a(exti_f1.c.o)
                              C:\Users\Данила Кондрашов\AppData\Local\Temp\VMBuilds\LAB8_NEW\stm32duino_genericSTM32F103C6\Release\core.a(exti.c.o) (exti_select)
C:\Users\Данила Кондрашов\AppData\Local\Temp\VMBuilds\LAB8_NEW\stm32duino_genericSTM32F103C6\Release\core.a(flash.c.o)
                              C:\Users\Данила Кондрашов\AppData\Local\Temp\VMBCore\arduino16x\1ff78a0346523d7d91af874899f893a8\variant\wirish\boards.cpp.o (flash_set_latency)
C:\Users\Данила Кондрашов\AppData\Local\Temp\VMBuilds\LAB8_NEW\stm32duino_genericSTM32F103C6\Release\core.a(gpio_f1.c.o)
                              C:\Users\Данила Кондрашов\AppData\Local\Temp\VMBCore\arduino16x\1ff78a0346523d7d91af874899f893a8\variant\wirish\boards_setup.cpp.o (gpio_init_all)
C:\Users\Данила Кондрашов\AppData\Local\Temp\VMBuilds\LAB8_NEW\stm32duino_genericSTM32F103C6\Release\core.a(i2c.c.o)
                              Wire\Wire.cpp.o (i2c_master_xfer)
C:\Users\Данила Кондрашов\AppData\Local\Temp\VMBuilds\LAB8_NEW\stm32duino_genericSTM32F103C6\Release\core.a(i2c_f1.c.o)
                              C:\Users\Данила Кондрашов\AppData\Local\Temp\VMBuilds\LAB8_NEW\stm32duino_genericSTM32F103C6\Release\core.a(i2c.c.o) (i2c_config_gpios)
C:\Users\Данила Кондрашов\AppData\Local\Temp\VMBuilds\LAB8_NEW\stm32duino_genericSTM32F103C6\Release\core.a(nvic.c.o)
                              C:\Users\Данила Кондрашов\AppData\Local\Temp\VMBuilds\LAB8_NEW\stm32duino_genericSTM32F103C6\Release\core.a(i2c_f1.c.o) (nvic_irq_set_priority)
C:\Users\Данила Кондрашов\AppData\Local\Temp\VMBuilds\LAB8_NEW\stm32duino_genericSTM32F103C6\Release\core.a(rcc.c.o)
                              C:\Users\Данила Кондрашов\AppData\Local\Temp\VMBCore\arduino16x\1ff78a0346523d7d91af874899f893a8\variant\wirish\boards.cpp.o (rcc_switch_sysclk)
C:\Users\Данила Кондрашов\AppData\Local\Temp\VMBuilds\LAB8_NEW\stm32duino_genericSTM32F103C6\Release\core.a(rcc_f1.c.o)
                              C:\Users\Данила Кондрашов\AppData\Local\Temp\VMBCore\arduino16x\1ff78a0346523d7d91af874899f893a8\variant\wirish\boards.cpp.o (rcc_configure_pll)
C:\Users\Данила Кондрашов\AppData\Local\Temp\VMBuilds\LAB8_NEW\stm32duino_genericSTM32F103C6\Release\core.a(systick.c.o)
                              C:\Users\Данила Кондрашов\AppData\Local\Temp\VMBCore\arduino16x\1ff78a0346523d7d91af874899f893a8\variant\wirish\boards.cpp.o (systick_init)
C:\Users\Данила Кондрашов\AppData\Local\Temp\VMBuilds\LAB8_NEW\stm32duino_genericSTM32F103C6\Release\core.a(timer.c.o)
                              C:\Users\Данила Кондрашов\AppData\Local\Temp\VMBCore\arduino16x\1ff78a0346523d7d91af874899f893a8\variant\wirish\boards.cpp.o (timer_foreach)
C:\Users\Данила Кондрашов\AppData\Local\Temp\VMBuilds\LAB8_NEW\stm32duino_genericSTM32F103C6\Release\core.a(usart_f1.c.o)
                              (__irq_usart1)
C:\Users\Данила Кондрашов\AppData\Local\Temp\VMBuilds\LAB8_NEW\stm32duino_genericSTM32F103C6\Release\core.a(usart_private.c.o)
                              C:\Users\Данила Кондрашов\AppData\Local\Temp\VMBuilds\LAB8_NEW\stm32duino_genericSTM32F103C6\Release\core.a(usart_f1.c.o) (_usart_clock_freq)
C:\Users\Данила Кондрашов\AppData\Local\Temp\VMBuilds\LAB8_NEW\stm32duino_genericSTM32F103C6\Release\core.a(util.c.o)
                              C:\Users\Данила Кондрашов\AppData\Local\Temp\VMBuilds\LAB8_NEW\stm32duino_genericSTM32F103C6\Release\core.a(exc.S.o) (__error)
C:\Users\Данила Кондрашов\AppData\Local\Temp\VMBuilds\LAB8_NEW\stm32duino_genericSTM32F103C6\Release\core.a(usb.c.o)
                              (__irq_usb_lp_can_rx0)
C:\Users\Данила Кондрашов\AppData\Local\Temp\VMBuilds\LAB8_NEW\stm32duino_genericSTM32F103C6\Release\core.a(usb_cdcacm.c.o)
                              C:\Users\Данила Кондрашов\AppData\Local\Temp\VMBuilds\LAB8_NEW\stm32duino_genericSTM32F103C6\Release\core.a(usb.c.o) (User_Standard_Requests)
C:\Users\Данила Кондрашов\AppData\Local\Temp\VMBuilds\LAB8_NEW\stm32duino_genericSTM32F103C6\Release\core.a(usb_reg_map.c.o)
                              C:\Users\Данила Кондрашов\AppData\Local\Temp\VMBuilds\LAB8_NEW\stm32duino_genericSTM32F103C6\Release\core.a(usb_cdcacm.c.o) (usb_set_ep_rx_count)
C:\Users\Данила Кондрашов\AppData\Local\Temp\VMBuilds\LAB8_NEW\stm32duino_genericSTM32F103C6\Release\core.a(usb_core.c.o)
                              C:\Users\Данила Кондрашов\AppData\Local\Temp\VMBuilds\LAB8_NEW\stm32duino_genericSTM32F103C6\Release\core.a(usb_cdcacm.c.o) (Standard_GetDescriptorData)
C:\Users\Данила Кондрашов\AppData\Local\Temp\VMBuilds\LAB8_NEW\stm32duino_genericSTM32F103C6\Release\core.a(usb_init.c.o)
                              C:\Users\Данила Кондрашов\AppData\Local\Temp\VMBuilds\LAB8_NEW\stm32duino_genericSTM32F103C6\Release\core.a(usb.c.o) (pInformation)
C:\Users\Данила Кондрашов\AppData\Local\Temp\VMBuilds\LAB8_NEW\stm32duino_genericSTM32F103C6\Release\core.a(usb_mem.c.o)
                              C:\Users\Данила Кондрашов\AppData\Local\Temp\VMBuilds\LAB8_NEW\stm32duino_genericSTM32F103C6\Release\core.a(usb_core.c.o) (UserToPMABufferCopy)
C:\Users\Данила Кондрашов\AppData\Local\Temp\VMBuilds\LAB8_NEW\stm32duino_genericSTM32F103C6\Release\core.a(usb_regs.c.o)
                              C:\Users\Данила Кондрашов\AppData\Local\Temp\VMBuilds\LAB8_NEW\stm32duino_genericSTM32F103C6\Release\core.a(usb_core.c.o) (SetEPTxStatus)
C:\Users\Данила Кондрашов\AppData\Local\Temp\VMBuilds\LAB8_NEW\stm32duino_genericSTM32F103C6\Release\core.a(cxxabi-compat.cpp.o)
                              Wire\utility\WireBase.cpp.o (__cxa_pure_virtual)
C:\Users\Данила Кондрашов\AppData\Local\Temp\VMBuilds\LAB8_NEW\stm32duino_genericSTM32F103C6\Release\core.a(HardwareSerial.cpp.o)
                              C:\Users\Данила Кондрашов\AppData\Local\Temp\VMBCore\arduino16x\1ff78a0346523d7d91af874899f893a8\variant\board.cpp.o (HardwareSerial::HardwareSerial(usart_dev*, unsigned char, unsigned char))
C:\Users\Данила Кондрашов\AppData\Local\Temp\VMBuilds\LAB8_NEW\stm32duino_genericSTM32F103C6\Release\core.a(main.cpp.o)
                              (main)
C:\Users\Данила Кондрашов\AppData\Local\Temp\VMBuilds\LAB8_NEW\stm32duino_genericSTM32F103C6\Release\core.a(Print.cpp.o)
                              C:\Users\Данила Кондрашов\AppData\Local\Temp\VMBuilds\LAB8_NEW\stm32duino_genericSTM32F103C6\Release\core.a(HardwareSerial.cpp.o) (Print::write(void const*, unsigned long))
C:\Users\Данила Кондрашов\AppData\Local\Temp\VMBuilds\LAB8_NEW\stm32duino_genericSTM32F103C6\Release\core.a(pwm.cpp.o)
                              LAB8_NEW.cpp.o (analogWrite(unsigned char, int))
C:\Users\Данила Кондрашов\AppData\Local\Temp\VMBuilds\LAB8_NEW\stm32duino_genericSTM32F103C6\Release\core.a(tone.cpp.o)
                              LAB8_NEW.cpp.o (tone(unsigned long, unsigned long, unsigned long))
C:\Users\Данила Кондрашов\AppData\Local\Temp\VMBuilds\LAB8_NEW\stm32duino_genericSTM32F103C6\Release\core.a(wirish_digital.cpp.o)
                              LAB8_NEW.cpp.o (digitalRead(unsigned char))
C:\Users\Данила Кондрашов\AppData\Local\Temp\VMBuilds\LAB8_NEW\stm32duino_genericSTM32F103C6\Release\core.a(wirish_time.cpp.o)
                              LAB8_NEW.cpp.o (delay)
C:\Users\Данила Кондрашов\AppData\Local\Temp\VMBuilds\LAB8_NEW\stm32duino_genericSTM32F103C6\Release\core.a(wirish_digital_f1.cpp.o)
                              LAB8_NEW.cpp.o (pinMode(unsigned char, WiringPinMode))
C:\Users\Данила Кондрашов\AppData\Local\Temp\VMBuilds\LAB8_NEW\stm32duino_genericSTM32F103C6\Release\core.a(hooks.c.o)
                              C:\Users\Данила Кондрашов\AppData\Local\Temp\VMBuilds\LAB8_NEW\stm32duino_genericSTM32F103C6\Release\core.a(wirish_time.cpp.o) (yield)
C:\Users\Данила Кондрашов\AppData\Local\Temp\VMBuilds\LAB8_NEW\stm32duino_genericSTM32F103C6\Release\core.a(dma.c.o)
                              C:\Users\Данила Кондрашов\AppData\Local\Temp\VMBuilds\LAB8_NEW\stm32duino_genericSTM32F103C6\Release\core.a(dma_f1.c.o) (_dma_addr_type)
C:\Users\Данила Кондрашов\AppData\Local\Temp\VMBuilds\LAB8_NEW\stm32duino_genericSTM32F103C6\Release\core.a(gpio.c.o)
                              C:\Users\Данила Кондрашов\AppData\Local\Temp\VMBuilds\LAB8_NEW\stm32duino_genericSTM32F103C6\Release\core.a(gpio_f1.c.o) (gpio_init)
C:\Users\Данила Кондрашов\AppData\Local\Temp\VMBuilds\LAB8_NEW\stm32duino_genericSTM32F103C6\Release\core.a(usart.c.o)
                              C:\Users\Данила Кондрашов\AppData\Local\Temp\VMBuilds\LAB8_NEW\stm32duino_genericSTM32F103C6\Release\core.a(HardwareSerial.cpp.o) (usart_init)
C:\Users\Данила Кондрашов\AppData\Local\Temp\VMBuilds\LAB8_NEW\stm32duino_genericSTM32F103C6\Release\core.a(HardwareTimer.cpp.o)
                              C:\Users\Данила Кондрашов\AppData\Local\Temp\VMBuilds\LAB8_NEW\stm32duino_genericSTM32F103C6\Release\core.a(tone.cpp.o) (HardwareTimer::HardwareTimer(unsigned char))
c:/users/данила кондрашов/appdata/local/arduino15/packages/arduino/tools/arm-none-eabi-gcc/4.8.3-2014q1/bin/../lib/gcc/arm-none-eabi/4.8.3/armv7-m\libgcc.a(_arm_addsubdf3.o)
                              LAB8_NEW.cpp.o (__aeabi_dsub)
c:/users/данила кондрашов/appdata/local/arduino15/packages/arduino/tools/arm-none-eabi-gcc/4.8.3-2014q1/bin/../lib/gcc/arm-none-eabi/4.8.3/armv7-m\libgcc.a(_arm_muldivdf3.o)
                              LAB8_NEW.cpp.o (__aeabi_dmul)
c:/users/данила кондрашов/appdata/local/arduino15/packages/arduino/tools/arm-none-eabi-gcc/4.8.3-2014q1/bin/../lib/gcc/arm-none-eabi/4.8.3/armv7-m\libgcc.a(_arm_cmpdf2.o)
                              LAB8_NEW.cpp.o (__aeabi_dcmplt)
c:/users/данила кондрашов/appdata/local/arduino15/packages/arduino/tools/arm-none-eabi-gcc/4.8.3-2014q1/bin/../lib/gcc/arm-none-eabi/4.8.3/armv7-m\libgcc.a(_arm_fixdfsi.o)
                              LAB8_NEW.cpp.o (__aeabi_d2iz)
c:/users/данила кондрашов/appdata/local/arduino15/packages/arduino/tools/arm-none-eabi-gcc/4.8.3-2014q1/bin/../lib/gcc/arm-none-eabi/4.8.3/armv7-m\libgcc.a(_arm_addsubsf3.o)
                              LM75A_Arduino_library\M2M_LM75A.cpp.o (__aeabi_fadd)
c:/users/данила кондрашов/appdata/local/arduino15/packages/arduino/tools/arm-none-eabi-gcc/4.8.3-2014q1/bin/../lib/gcc/arm-none-eabi/4.8.3/armv7-m\libgcc.a(_arm_muldivsf3.o)
                              LM75A_Arduino_library\M2M_LM75A.cpp.o (__aeabi_fmul)
c:/users/данила кондрашов/appdata/local/arduino15/packages/arduino/tools/arm-none-eabi-gcc/4.8.3-2014q1/bin/../lib/gcc/arm-none-eabi/4.8.3/armv7-m\libgcc.a(_arm_fixunssfsi.o)
                              LM75A_Arduino_library\M2M_LM75A.cpp.o (__aeabi_f2uiz)
c:/users/данила кондрашов/appdata/local/arduino15/packages/arduino/tools/arm-none-eabi-gcc/4.8.3-2014q1/bin/../lib/gcc/arm-none-eabi/4.8.3/armv7-m\libgcc.a(_aeabi_uldivmod.o)
                              C:\Users\Данила Кондрашов\AppData\Local\Temp\VMBuilds\LAB8_NEW\stm32duino_genericSTM32F103C6\Release\core.a(Print.cpp.o) (__aeabi_uldivmod)
c:/users/данила кондрашов/appdata/local/arduino15/packages/arduino/tools/arm-none-eabi-gcc/4.8.3-2014q1/bin/../lib/gcc/arm-none-eabi/4.8.3/armv7-m\libgcc.a(_fixdfdi.o)
                              C:\Users\Данила Кондрашов\AppData\Local\Temp\VMBuilds\LAB8_NEW\stm32duino_genericSTM32F103C6\Release\core.a(Print.cpp.o) (__aeabi_d2lz)
c:/users/данила кондрашов/appdata/local/arduino15/packages/arduino/tools/arm-none-eabi-gcc/4.8.3-2014q1/bin/../lib/gcc/arm-none-eabi/4.8.3/armv7-m\libgcc.a(_fixunsdfdi.o)
                              c:/users/данила кондрашов/appdata/local/arduino15/packages/arduino/tools/arm-none-eabi-gcc/4.8.3-2014q1/bin/../lib/gcc/arm-none-eabi/4.8.3/armv7-m\libgcc.a(_fixdfdi.o) (__aeabi_d2ulz)
c:/users/данила кондрашов/appdata/local/arduino15/packages/arduino/tools/arm-none-eabi-gcc/4.8.3-2014q1/bin/../lib/gcc/arm-none-eabi/4.8.3/armv7-m\libgcc.a(bpabi.o)
                              c:/users/данила кондрашов/appdata/local/arduino15/packages/arduino/tools/arm-none-eabi-gcc/4.8.3-2014q1/bin/../lib/gcc/arm-none-eabi/4.8.3/armv7-m\libgcc.a(_aeabi_uldivmod.o) (__gnu_uldivmod_helper)
c:/users/данила кондрашов/appdata/local/arduino15/packages/arduino/tools/arm-none-eabi-gcc/4.8.3-2014q1/bin/../lib/gcc/arm-none-eabi/4.8.3/armv7-m\libgcc.a(_dvmd_tls.o)
                              c:/users/данила кондрашов/appdata/local/arduino15/packages/arduino/tools/arm-none-eabi-gcc/4.8.3-2014q1/bin/../lib/gcc/arm-none-eabi/4.8.3/armv7-m\libgcc.a(_aeabi_uldivmod.o) (__aeabi_ldiv0)
c:/users/данила кондрашов/appdata/local/arduino15/packages/arduino/tools/arm-none-eabi-gcc/4.8.3-2014q1/bin/../lib/gcc/arm-none-eabi/4.8.3/armv7-m\libgcc.a(_arm_fixunsdfsi.o)
                              c:/users/данила кондрашов/appdata/local/arduino15/packages/arduino/tools/arm-none-eabi-gcc/4.8.3-2014q1/bin/../lib/gcc/arm-none-eabi/4.8.3/armv7-m\libgcc.a(_fixunsdfdi.o) (__aeabi_d2uiz)
c:/users/данила кондрашов/appdata/local/arduino15/packages/arduino/tools/arm-none-eabi-gcc/4.8.3-2014q1/bin/../lib/gcc/arm-none-eabi/4.8.3/armv7-m\libgcc.a(_divdi3.o)
                              c:/users/данила кондрашов/appdata/local/arduino15/packages/arduino/tools/arm-none-eabi-gcc/4.8.3-2014q1/bin/../lib/gcc/arm-none-eabi/4.8.3/armv7-m\libgcc.a(bpabi.o) (__divdi3)
c:/users/данила кондрашов/appdata/local/arduino15/packages/arduino/tools/arm-none-eabi-gcc/4.8.3-2014q1/bin/../lib/gcc/arm-none-eabi/4.8.3/armv7-m\libgcc.a(_udivdi3.o)
                              c:/users/данила кондрашов/appdata/local/arduino15/packages/arduino/tools/arm-none-eabi-gcc/4.8.3-2014q1/bin/../lib/gcc/arm-none-eabi/4.8.3/armv7-m\libgcc.a(bpabi.o) (__udivdi3)
c:/users/данила кондрашов/appdata/local/arduino15/packages/arduino/tools/arm-none-eabi-gcc/4.8.3-2014q1/bin/../lib/gcc/arm-none-eabi/4.8.3/../../../../arm-none-eabi/lib/armv7-m\libc_s.a(lib_a-errno.o)
                              C:\Users\Данила Кондрашов\AppData\Local\Temp\VMBCore\arduino16x\1ff78a0346523d7d91af874899f893a8\variant\syscalls.c.o (__errno)
c:/users/данила кондрашов/appdata/local/arduino15/packages/arduino/tools/arm-none-eabi-gcc/4.8.3-2014q1/bin/../lib/gcc/arm-none-eabi/4.8.3/../../../../arm-none-eabi/lib/armv7-m\libc_s.a(lib_a-exit.o)
                              c:/users/данила кондрашов/appdata/local/arduino15/packages/arduino/tools/arm-none-eabi-gcc/4.8.3-2014q1/bin/../lib/gcc/arm-none-eabi/4.8.3/../../../../arm-none-eabi/lib/armv7-m/crt0.o (exit)
c:/users/данила кондрашов/appdata/local/arduino15/packages/arduino/tools/arm-none-eabi-gcc/4.8.3-2014q1/bin/../lib/gcc/arm-none-eabi/4.8.3/../../../../arm-none-eabi/lib/armv7-m\libc_s.a(lib_a-impure.o)
                              c:/users/данила кондрашов/appdata/local/arduino15/packages/arduino/tools/arm-none-eabi-gcc/4.8.3-2014q1/bin/../lib/gcc/arm-none-eabi/4.8.3/../../../../arm-none-eabi/lib/armv7-m\libc_s.a(lib_a-exit.o) (_global_impure_ptr)
c:/users/данила кондрашов/appdata/local/arduino15/packages/arduino/tools/arm-none-eabi-gcc/4.8.3-2014q1/bin/../lib/gcc/arm-none-eabi/4.8.3/../../../../arm-none-eabi/lib/armv7-m\libc_s.a(lib_a-init.o)
                              c:/users/данила кондрашов/appdata/local/arduino15/packages/arduino/tools/arm-none-eabi-gcc/4.8.3-2014q1/bin/../lib/gcc/arm-none-eabi/4.8.3/../../../../arm-none-eabi/lib/armv7-m/crt0.o (__libc_init_array)
c:/users/данила кондрашов/appdata/local/arduino15/packages/arduino/tools/arm-none-eabi-gcc/4.8.3-2014q1/bin/../lib/gcc/arm-none-eabi/4.8.3/../../../../arm-none-eabi/lib/armv7-m\libc_s.a(lib_a-memset.o)
                              c:/users/данила кондрашов/appdata/local/arduino15/packages/arduino/tools/arm-none-eabi-gcc/4.8.3-2014q1/bin/../lib/gcc/arm-none-eabi/4.8.3/../../../../arm-none-eabi/lib/armv7-m/crt0.o (memset)
c:/users/данила кондрашов/appdata/local/arduino15/packages/arduino/tools/arm-none-eabi-gcc/4.8.3-2014q1/bin/../lib/gcc/arm-none-eabi/4.8.3/../../../../arm-none-eabi/lib/armv7-m\libc_s.a(lib_a-strcpy.o)
                              C:\Users\Данила Кондрашов\AppData\Local\Temp\VMBuilds\LAB8_NEW\stm32duino_genericSTM32F103C6\Release\core.a(cxxabi-compat.cpp.o) (strcpy)
c:/users/данила кондрашов/appdata/local/arduino15/packages/arduino/tools/arm-none-eabi-gcc/4.8.3-2014q1/bin/../lib/gcc/arm-none-eabi/4.8.3/../../../../arm-none-eabi/lib/armv7-m\libc_s.a(lib_a-strlen.o)
                              C:\Users\Данила Кондрашов\AppData\Local\Temp\VMBuilds\LAB8_NEW\stm32duino_genericSTM32F103C6\Release\core.a(Print.cpp.o) (strlen)

Allocating common symbols
Common symbol       size              file

SaveRState          0x2               C:\Users\Данила Кондрашов\AppData\Local\Temp\VMBuilds\LAB8_NEW\stm32duino_genericSTM32F103C6\Release\core.a(usb.c.o)
SaveState           0x2               C:\Users\Данила Кондрашов\AppData\Local\Temp\VMBuilds\LAB8_NEW\stm32duino_genericSTM32F103C6\Release\core.a(usb_init.c.o)
pProperty           0x4               C:\Users\Данила Кондрашов\AppData\Local\Temp\VMBuilds\LAB8_NEW\stm32duino_genericSTM32F103C6\Release\core.a(usb_init.c.o)
EPindex             0x1               C:\Users\Данила Кондрашов\AppData\Local\Temp\VMBuilds\LAB8_NEW\stm32duino_genericSTM32F103C6\Release\core.a(usb_init.c.o)
SaveTState          0x2               C:\Users\Данила Кондрашов\AppData\Local\Temp\VMBuilds\LAB8_NEW\stm32duino_genericSTM32F103C6\Release\core.a(usb.c.o)
systick_uptime_millis
                    0x4               C:\Users\Данила Кондрашов\AppData\Local\Temp\VMBuilds\LAB8_NEW\stm32duino_genericSTM32F103C6\Release\core.a(systick.c.o)
Device_Info         0x1c              C:\Users\Данила Кондрашов\AppData\Local\Temp\VMBuilds\LAB8_NEW\stm32duino_genericSTM32F103C6\Release\core.a(usb_init.c.o)
pUser_Standard_Requests
                    0x4               C:\Users\Данила Кондрашов\AppData\Local\Temp\VMBuilds\LAB8_NEW\stm32duino_genericSTM32F103C6\Release\core.a(usb_init.c.o)
StatusInfo          0x2               C:\Users\Данила Кондрашов\AppData\Local\Temp\VMBuilds\LAB8_NEW\stm32duino_genericSTM32F103C6\Release\core.a(usb_core.c.o)
pInformation        0x4               C:\Users\Данила Кондрашов\AppData\Local\Temp\VMBuilds\LAB8_NEW\stm32duino_genericSTM32F103C6\Release\core.a(usb_init.c.o)
ResumeS             0x2               C:\Users\Данила Кондрашов\AppData\Local\Temp\VMBuilds\LAB8_NEW\stm32duino_genericSTM32F103C6\Release\core.a(usb.c.o)
wInterrupt_Mask     0x2               C:\Users\Данила Кондрашов\AppData\Local\Temp\VMBuilds\LAB8_NEW\stm32duino_genericSTM32F103C6\Release\core.a(usb_init.c.o)

Discarded input sections

 .text          0x00000000        0x0 c:/users/данила кондрашов/appdata/local/arduino15/packages/arduino/tools/arm-none-eabi-gcc/4.8.3-2014q1/bin/../lib/gcc/arm-none-eabi/4.8.3/armv7-m/crti.o
 .data          0x00000000        0x0 c:/users/данила кондрашов/appdata/local/arduino15/packages/arduino/tools/arm-none-eabi-gcc/4.8.3-2014q1/bin/../lib/gcc/arm-none-eabi/4.8.3/armv7-m/crti.o
 .bss           0x00000000        0x0 c:/users/данила кондрашов/appdata/local/arduino15/packages/arduino/tools/arm-none-eabi-gcc/4.8.3-2014q1/bin/../lib/gcc/arm-none-eabi/4.8.3/armv7-m/crti.o
 .data          0x00000000        0x4 c:/users/данила кондрашов/appdata/local/arduino15/packages/arduino/tools/arm-none-eabi-gcc/4.8.3-2014q1/bin/../lib/gcc/arm-none-eabi/4.8.3/armv7-m/crtbegin.o
 .text          0x00000000       0x74 c:/users/данила кондрашов/appdata/local/arduino15/packages/arduino/tools/arm-none-eabi-gcc/4.8.3-2014q1/bin/../lib/gcc/arm-none-eabi/4.8.3/../../../../arm-none-eabi/lib/armv7-m/crt0.o
 .data          0x00000000        0x0 c:/users/данила кондрашов/appdata/local/arduino15/packages/arduino/tools/arm-none-eabi-gcc/4.8.3-2014q1/bin/../lib/gcc/arm-none-eabi/4.8.3/../../../../arm-none-eabi/lib/armv7-m/crt0.o
 .bss           0x00000000        0x0 c:/users/данила кондрашов/appdata/local/arduino15/packages/arduino/tools/arm-none-eabi-gcc/4.8.3-2014q1/bin/../lib/gcc/arm-none-eabi/4.8.3/../../../../arm-none-eabi/lib/armv7-m/crt0.o
 .ARM.extab     0x00000000        0x0 c:/users/данила кондрашов/appdata/local/arduino15/packages/arduino/tools/arm-none-eabi-gcc/4.8.3-2014q1/bin/../lib/gcc/arm-none-eabi/4.8.3/../../../../arm-none-eabi/lib/armv7-m/crt0.o
 .ARM.exidx     0x00000000        0x8 c:/users/данила кондрашов/appdata/local/arduino15/packages/arduino/tools/arm-none-eabi-gcc/4.8.3-2014q1/bin/../lib/gcc/arm-none-eabi/4.8.3/../../../../arm-none-eabi/lib/armv7-m/crt0.o
 .text          0x00000000        0x0 LAB8_NEW.cpp.o
 .data          0x00000000        0x0 LAB8_NEW.cpp.o
 .bss           0x00000000        0x0 LAB8_NEW.cpp.o
 .text          0x00000000        0x0 LM75A_Arduino_library\M2M_LM75A.cpp.o
 .data          0x00000000        0x0 LM75A_Arduino_library\M2M_LM75A.cpp.o
 .bss           0x00000000        0x0 LM75A_Arduino_library\M2M_LM75A.cpp.o
 .text._ZN9M2M_LM75AC2Eh
                0x00000000        0x4 LM75A_Arduino_library\M2M_LM75A.cpp.o
 .text._ZN9M2M_LM75A16read8bitRegisterEh
                0x00000000       0x38 LM75A_Arduino_library\M2M_LM75A.cpp.o
 .text._ZN9M2M_LM75A10isShutdownEv
                0x00000000        0xe LM75A_Arduino_library\M2M_LM75A.cpp.o
 .text._ZN9M2M_LM75A18getFaultQueueValueEv
                0x00000000        0xe LM75A_Arduino_library\M2M_LM75A.cpp.o
 .text._ZN9M2M_LM75A13getOsPolarityEv
                0x00000000        0xe LM75A_Arduino_library\M2M_LM75A.cpp.o
 .text._ZN9M2M_LM75A13getDeviceModeEv
                0x00000000        0xe LM75A_Arduino_library\M2M_LM75A.cpp.o
 .text._ZN9M2M_LM75A9getConfigEv
                0x00000000        0x6 LM75A_Arduino_library\M2M_LM75A.cpp.o
 .text._ZN9M2M_LM75A9getProdIdEv
                0x00000000       0x30 LM75A_Arduino_library\M2M_LM75A.cpp.o
 .text._ZN9M2M_LM75A25getTemperatureInFarenheitEv
                0x00000000       0x1c LM75A_Arduino_library\M2M_LM75A.cpp.o
 .text._ZN9M2M_LM75A24getHysterisisTemperatureEv
                0x00000000       0x2c LM75A_Arduino_library\M2M_LM75A.cpp.o
 .text._ZN9M2M_LM75A20getOSTripTemperatureEv
                0x00000000       0x2c LM75A_Arduino_library\M2M_LM75A.cpp.o
 .text._ZN9M2M_LM75A18write16bitRegisterEht
                0x00000000       0x3c LM75A_Arduino_library\M2M_LM75A.cpp.o
 .text._ZN9M2M_LM75A24setHysterisisTemperatureEf
                0x00000000       0x20 LM75A_Arduino_library\M2M_LM75A.cpp.o
 .text._ZN9M2M_LM75A20setOsTripTemperatureEf
                0x00000000       0x20 LM75A_Arduino_library\M2M_LM75A.cpp.o
 .text._ZN9M2M_LM75A17write8bitRegisterEhh
                0x00000000       0x34 LM75A_Arduino_library\M2M_LM75A.cpp.o
 .text._ZN9M2M_LM75A8shutdownEv
                0x00000000       0x1c LM75A_Arduino_library\M2M_LM75A.cpp.o
 .text._ZN9M2M_LM75A6wakeupEv
                0x00000000       0x1a LM75A_Arduino_library\M2M_LM75A.cpp.o
 .text._ZN9M2M_LM75A18setFaultQueueValueE15FaultQueueValue
                0x00000000       0x1e LM75A_Arduino_library\M2M_LM75A.cpp.o
 .text._ZN9M2M_LM75A13setOsPolarityE10OsPolarity
                0x00000000       0x1e LM75A_Arduino_library\M2M_LM75A.cpp.o
 .text._ZN9M2M_LM75A13setDeviceModeE10DeviceMode
                0x00000000       0x1e LM75A_Arduino_library\M2M_LM75A.cpp.o
 .text._ZN9M2M_LM75A11isConnectedEv
                0x00000000       0x34 LM75A_Arduino_library\M2M_LM75A.cpp.o
 .text._ZN9M2M_LM75A3endEv
                0x00000000        0xc LM75A_Arduino_library\M2M_LM75A.cpp.o
 .text          0x00000000        0x0 Wire\SoftWire.cpp.o
 .data          0x00000000        0x0 Wire\SoftWire.cpp.o
 .bss           0x00000000        0x0 Wire\SoftWire.cpp.o
 .text._ZN8SoftWire7processEv
                0x00000000        0xc Wire\SoftWire.cpp.o
 .text._ZN8SoftWire3endEv
                0x00000000       0x22 Wire\SoftWire.cpp.o
 .text._ZN8SoftWire7set_sclEb
                0x00000000       0x3c Wire\SoftWire.cpp.o
 .text._ZN8SoftWire7set_sdaEb
                0x00000000       0x2a Wire\SoftWire.cpp.o
 .text._ZN8SoftWire5beginEh
                0x00000000       0x68 Wire\SoftWire.cpp.o
 .text._ZN8SoftWire9i2c_startEv
                0x00000000       0x16 Wire\SoftWire.cpp.o
 .text._ZN8SoftWire8i2c_stopEv
                0x00000000       0x1e Wire\SoftWire.cpp.o
 .text._ZN8SoftWire18i2c_repeated_startEv
                0x00000000       0x1e Wire\SoftWire.cpp.o
 .text._ZN8SoftWire11i2c_get_ackEv
                0x00000000       0x3e Wire\SoftWire.cpp.o
 .text._ZN8SoftWire12i2c_send_ackEv
                0x00000000       0x1e Wire\SoftWire.cpp.o
 .text._ZN8SoftWire13i2c_send_nackEv
                0x00000000       0x1e Wire\SoftWire.cpp.o
 .text._ZN8SoftWire12i2c_shift_inEv
                0x00000000       0x44 Wire\SoftWire.cpp.o
 .text._ZN8SoftWire13i2c_shift_outEh
                0x00000000       0x2e Wire\SoftWire.cpp.o
 .text._ZN8SoftWire7processEh
                0x00000000       0xb2 Wire\SoftWire.cpp.o
 .text._ZN8SoftWireC2Ehhh
                0x00000000       0x18 Wire\SoftWire.cpp.o
 .text._ZN8SoftWire8setClockEm
                0x00000000       0x14 Wire\SoftWire.cpp.o
 .text._ZN8SoftWireD2Ev
                0x00000000       0x14 Wire\SoftWire.cpp.o
 .rodata._ZTV8SoftWire
                0x00000000       0x18 Wire\SoftWire.cpp.o
 .text          0x00000000        0x0 Wire\Wire.cpp.o
 .data          0x00000000        0x0 Wire\Wire.cpp.o
 .bss           0x00000000        0x0 Wire\Wire.cpp.o
 .text._ZN7TwoWireC2Ehhm
                0x00000000       0x40 Wire\Wire.cpp.o
 .text._ZN7TwoWire8setClockEm
                0x00000000       0x26 Wire\Wire.cpp.o
 .group         0x00000000        0x8 Wire\utility\WireBase.cpp.o
 .text          0x00000000        0x0 Wire\utility\WireBase.cpp.o
 .data          0x00000000        0x0 Wire\utility\WireBase.cpp.o
 .bss           0x00000000        0x0 Wire\utility\WireBase.cpp.o
 .text._ZN8WireBase17beginTransmissionEi
                0x00000000       0x16 Wire\utility\WireBase.cpp.o
 .text._ZN8WireBase11requestFromEiib
                0x00000000        0x6 Wire\utility\WireBase.cpp.o
 .text._ZN8WireBase5writeEPhi
                0x00000000       0x2e Wire\utility\WireBase.cpp.o
 .text._ZN8WireBase5writeEi
                0x00000000        0x6 Wire\utility\WireBase.cpp.o
 .text._ZN8WireBase5writeEPii
                0x00000000        0x6 Wire\utility\WireBase.cpp.o
 .text._ZN8WireBase5writeEPc
                0x00000000       0x16 Wire\utility\WireBase.cpp.o
 .text._ZN8WireBase9availableEv
                0x00000000        0xe Wire\utility\WireBase.cpp.o
 .text          0x00000000        0x0 C:\Users\Данила Кондрашов\AppData\Local\Temp\VMBCore\arduino16x\1ff78a0346523d7d91af874899f893a8\variant\board.cpp.o
 .data          0x00000000        0x0 C:\Users\Данила Кондрашов\AppData\Local\Temp\VMBCore\arduino16x\1ff78a0346523d7d91af874899f893a8\variant\board.cpp.o
 .bss           0x00000000        0x0 C:\Users\Данила Кондрашов\AppData\Local\Temp\VMBCore\arduino16x\1ff78a0346523d7d91af874899f893a8\variant\board.cpp.o
 .USER_FLASH    0x00000000       0x19 C:\Users\Данила Кондрашов\AppData\Local\Temp\VMBCore\arduino16x\1ff78a0346523d7d91af874899f893a8\variant\board.cpp.o
 .text          0x00000000        0x0 C:\Users\Данила Кондрашов\AppData\Local\Temp\VMBCore\arduino16x\1ff78a0346523d7d91af874899f893a8\variant\wirish\boards.cpp.o
 .data          0x00000000        0x0 C:\Users\Данила Кондрашов\AppData\Local\Temp\VMBCore\arduino16x\1ff78a0346523d7d91af874899f893a8\variant\wirish\boards.cpp.o
 .bss           0x00000000        0x0 C:\Users\Данила Кондрашов\AppData\Local\Temp\VMBCore\arduino16x\1ff78a0346523d7d91af874899f893a8\variant\wirish\boards.cpp.o
 .text._Z9boardInitv
                0x00000000        0x2 C:\Users\Данила Кондрашов\AppData\Local\Temp\VMBCore\arduino16x\1ff78a0346523d7d91af874899f893a8\variant\wirish\boards.cpp.o
 .text._Z12boardUsesPinh
                0x00000000       0x1c C:\Users\Данила Кондрашов\AppData\Local\Temp\VMBCore\arduino16x\1ff78a0346523d7d91af874899f893a8\variant\wirish\boards.cpp.o
 .text          0x00000000        0x0 C:\Users\Данила Кондрашов\AppData\Local\Temp\VMBCore\arduino16x\1ff78a0346523d7d91af874899f893a8\variant\wirish\boards_setup.cpp.o
 .data          0x00000000        0x0 C:\Users\Данила Кондрашов\AppData\Local\Temp\VMBCore\arduino16x\1ff78a0346523d7d91af874899f893a8\variant\wirish\boards_setup.cpp.o
 .bss           0x00000000        0x0 C:\Users\Данила Кондрашов\AppData\Local\Temp\VMBCore\arduino16x\1ff78a0346523d7d91af874899f893a8\variant\wirish\boards_setup.cpp.o
 .data          0x00000000        0x0 C:\Users\Данила Кондрашов\AppData\Local\Temp\VMBCore\arduino16x\1ff78a0346523d7d91af874899f893a8\variant\start.S.o
 .bss           0x00000000        0x0 C:\Users\Данила Кондрашов\AppData\Local\Temp\VMBCore\arduino16x\1ff78a0346523d7d91af874899f893a8\variant\start.S.o
 .ARM.extab     0x00000000        0x0 C:\Users\Данила Кондрашов\AppData\Local\Temp\VMBCore\arduino16x\1ff78a0346523d7d91af874899f893a8\variant\start.S.o
 .text          0x00000000        0x0 C:\Users\Данила Кондрашов\AppData\Local\Temp\VMBCore\arduino16x\1ff78a0346523d7d91af874899f893a8\variant\start_c.c.o
 .data          0x00000000        0x0 C:\Users\Данила Кондрашов\AppData\Local\Temp\VMBCore\arduino16x\1ff78a0346523d7d91af874899f893a8\variant\start_c.c.o
 .bss           0x00000000        0x0 C:\Users\Данила Кондрашов\AppData\Local\Temp\VMBCore\arduino16x\1ff78a0346523d7d91af874899f893a8\variant\start_c.c.o
 .text          0x00000000        0x0 C:\Users\Данила Кондрашов\AppData\Local\Temp\VMBCore\arduino16x\1ff78a0346523d7d91af874899f893a8\variant\syscalls.c.o
 .data          0x00000000        0x0 C:\Users\Данила Кондрашов\AppData\Local\Temp\VMBCore\arduino16x\1ff78a0346523d7d91af874899f893a8\variant\syscalls.c.o
 .bss           0x00000000        0x0 C:\Users\Данила Кондрашов\AppData\Local\Temp\VMBCore\arduino16x\1ff78a0346523d7d91af874899f893a8\variant\syscalls.c.o
 .text._sbrk    0x00000000       0x44 C:\Users\Данила Кондрашов\AppData\Local\Temp\VMBCore\arduino16x\1ff78a0346523d7d91af874899f893a8\variant\syscalls.c.o
 .text._open    0x00000000        0x8 C:\Users\Данила Кондрашов\AppData\Local\Temp\VMBCore\arduino16x\1ff78a0346523d7d91af874899f893a8\variant\syscalls.c.o
 .text._close   0x00000000        0x4 C:\Users\Данила Кондрашов\AppData\Local\Temp\VMBCore\arduino16x\1ff78a0346523d7d91af874899f893a8\variant\syscalls.c.o
 .text._fstat   0x00000000        0xa C:\Users\Данила Кондрашов\AppData\Local\Temp\VMBCore\arduino16x\1ff78a0346523d7d91af874899f893a8\variant\syscalls.c.o
 .text._isatty  0x00000000        0x4 C:\Users\Данила Кондрашов\AppData\Local\Temp\VMBCore\arduino16x\1ff78a0346523d7d91af874899f893a8\variant\syscalls.c.o
 .text.isatty   0x00000000        0x4 C:\Users\Данила Кондрашов\AppData\Local\Temp\VMBCore\arduino16x\1ff78a0346523d7d91af874899f893a8\variant\syscalls.c.o
 .text._lseek   0x00000000        0x6 C:\Users\Данила Кондрашов\AppData\Local\Temp\VMBCore\arduino16x\1ff78a0346523d7d91af874899f893a8\variant\syscalls.c.o
 .text.getch    0x00000000        0x4 C:\Users\Данила Кондрашов\AppData\Local\Temp\VMBCore\arduino16x\1ff78a0346523d7d91af874899f893a8\variant\syscalls.c.o
 .text._read    0x00000000        0xe C:\Users\Данила Кондрашов\AppData\Local\Temp\VMBCore\arduino16x\1ff78a0346523d7d91af874899f893a8\variant\syscalls.c.o
 .text.putch    0x00000000        0x2 C:\Users\Данила Кондрашов\AppData\Local\Temp\VMBCore\arduino16x\1ff78a0346523d7d91af874899f893a8\variant\syscalls.c.o
 .text.cgets    0x00000000       0x78 C:\Users\Данила Кондрашов\AppData\Local\Temp\VMBCore\arduino16x\1ff78a0346523d7d91af874899f893a8\variant\syscalls.c.o
 .text._write   0x00000000       0x1a C:\Users\Данила Кондрашов\AppData\Local\Temp\VMBCore\arduino16x\1ff78a0346523d7d91af874899f893a8\variant\syscalls.c.o
 .text.fgets    0x00000000        0xc C:\Users\Данила Кондрашов\AppData\Local\Temp\VMBCore\arduino16x\1ff78a0346523d7d91af874899f893a8\variant\syscalls.c.o
 .text._exit    0x00000000        0x2 C:\Users\Данила Кондрашов\AppData\Local\Temp\VMBCore\arduino16x\1ff78a0346523d7d91af874899f893a8\variant\syscalls.c.o
 .bss.pbreak.4444
                0x00000000        0x4 C:\Users\Данила Кондрашов\AppData\Local\Temp\VMBCore\arduino16x\1ff78a0346523d7d91af874899f893a8\variant\syscalls.c.o
 .data          0x00000000        0x0 C:\Users\Данила Кондрашов\AppData\Local\Temp\VMBuilds\LAB8_NEW\stm32duino_genericSTM32F103C6\Release\core.a(exc.S.o)
 .bss           0x00000000        0x0 C:\Users\Данила Кондрашов\AppData\Local\Temp\VMBuilds\LAB8_NEW\stm32duino_genericSTM32F103C6\Release\core.a(exc.S.o)
 .data          0x00000000        0x0 C:\Users\Данила Кондрашов\AppData\Local\Temp\VMBuilds\LAB8_NEW\stm32duino_genericSTM32F103C6\Release\core.a(isrs.S.o)
 .bss           0x00000000        0x0 C:\Users\Данила Кондрашов\AppData\Local\Temp\VMBuilds\LAB8_NEW\stm32duino_genericSTM32F103C6\Release\core.a(isrs.S.o)
 .text          0x00000000        0x0 C:\Users\Данила Кондрашов\AppData\Local\Temp\VMBuilds\LAB8_NEW\stm32duino_genericSTM32F103C6\Release\core.a(vector_table.S.o)
 .data          0x00000000        0x0 C:\Users\Данила Кондрашов\AppData\Local\Temp\VMBuilds\LAB8_NEW\stm32duino_genericSTM32F103C6\Release\core.a(vector_table.S.o)
 .bss           0x00000000        0x0 C:\Users\Данила Кондрашов\AppData\Local\Temp\VMBuilds\LAB8_NEW\stm32duino_genericSTM32F103C6\Release\core.a(vector_table.S.o)
 .text          0x00000000        0x0 C:\Users\Данила Кондрашов\AppData\Local\Temp\VMBuilds\LAB8_NEW\stm32duino_genericSTM32F103C6\Release\core.a(adc.c.o)
 .data          0x00000000        0x0 C:\Users\Данила Кондрашов\AppData\Local\Temp\VMBuilds\LAB8_NEW\stm32duino_genericSTM32F103C6\Release\core.a(adc.c.o)
 .bss           0x00000000        0x0 C:\Users\Данила Кондрашов\AppData\Local\Temp\VMBuilds\LAB8_NEW\stm32duino_genericSTM32F103C6\Release\core.a(adc.c.o)
 .text.adc_read
                0x00000000       0x20 C:\Users\Данила Кондрашов\AppData\Local\Temp\VMBuilds\LAB8_NEW\stm32duino_genericSTM32F103C6\Release\core.a(adc.c.o)
 .text          0x00000000        0x0 C:\Users\Данила Кондрашов\AppData\Local\Temp\VMBuilds\LAB8_NEW\stm32duino_genericSTM32F103C6\Release\core.a(adc_f1.c.o)
 .data          0x00000000        0x0 C:\Users\Данила Кондрашов\AppData\Local\Temp\VMBuilds\LAB8_NEW\stm32duino_genericSTM32F103C6\Release\core.a(adc_f1.c.o)
 .bss           0x00000000        0x0 C:\Users\Данила Кондрашов\AppData\Local\Temp\VMBuilds\LAB8_NEW\stm32duino_genericSTM32F103C6\Release\core.a(adc_f1.c.o)
 .text.adc_enable_irq
                0x00000000       0x30 C:\Users\Данила Кондрашов\AppData\Local\Temp\VMBuilds\LAB8_NEW\stm32duino_genericSTM32F103C6\Release\core.a(adc_f1.c.o)
 .text.adc_attach_interrupt
                0x00000000        0xa C:\Users\Данила Кондрашов\AppData\Local\Temp\VMBuilds\LAB8_NEW\stm32duino_genericSTM32F103C6\Release\core.a(adc_f1.c.o)
 .text.adc_config_gpio
                0x00000000        0xa C:\Users\Данила Кондрашов\AppData\Local\Temp\VMBuilds\LAB8_NEW\stm32duino_genericSTM32F103C6\Release\core.a(adc_f1.c.o)
 .text          0x00000000        0x0 C:\Users\Данила Кондрашов\AppData\Local\Temp\VMBuilds\LAB8_NEW\stm32duino_genericSTM32F103C6\Release\core.a(dma_f1.c.o)
 .data          0x00000000        0x0 C:\Users\Данила Кондрашов\AppData\Local\Temp\VMBuilds\LAB8_NEW\stm32duino_genericSTM32F103C6\Release\core.a(dma_f1.c.o)
 .bss           0x00000000        0x0 C:\Users\Данила Кондрашов\AppData\Local\Temp\VMBuilds\LAB8_NEW\stm32duino_genericSTM32F103C6\Release\core.a(dma_f1.c.o)
 .text.dma_set_priority
                0x00000000       0x18 C:\Users\Данила Кондрашов\AppData\Local\Temp\VMBuilds\LAB8_NEW\stm32duino_genericSTM32F103C6\Release\core.a(dma_f1.c.o)
 .text.dma_set_num_transfers
                0x00000000       0x10 C:\Users\Данила Кондрашов\AppData\Local\Temp\VMBuilds\LAB8_NEW\stm32duino_genericSTM32F103C6\Release\core.a(dma_f1.c.o)
 .text.dma_attach_interrupt
                0x00000000       0x40 C:\Users\Данила Кондрашов\AppData\Local\Temp\VMBuilds\LAB8_NEW\stm32duino_genericSTM32F103C6\Release\core.a(dma_f1.c.o)
 .text.dma_detach_interrupt
                0x00000000       0x60 C:\Users\Данила Кондрашов\AppData\Local\Temp\VMBuilds\LAB8_NEW\stm32duino_genericSTM32F103C6\Release\core.a(dma_f1.c.o)
 .text.dma_enable
                0x00000000       0x18 C:\Users\Данила Кондрашов\AppData\Local\Temp\VMBuilds\LAB8_NEW\stm32duino_genericSTM32F103C6\Release\core.a(dma_f1.c.o)
 .text.dma_disable
                0x00000000       0x18 C:\Users\Данила Кондрашов\AppData\Local\Temp\VMBuilds\LAB8_NEW\stm32duino_genericSTM32F103C6\Release\core.a(dma_f1.c.o)
 .text.dma_tube_cfg
                0x00000000      0x15c C:\Users\Данила Кондрашов\AppData\Local\Temp\VMBuilds\LAB8_NEW\stm32duino_genericSTM32F103C6\Release\core.a(dma_f1.c.o)
 .text.dma_get_irq_cause
                0x00000000       0x3c C:\Users\Данила Кондрашов\AppData\Local\Temp\VMBuilds\LAB8_NEW\stm32duino_genericSTM32F103C6\Release\core.a(dma_f1.c.o)
 .text.dma_set_mem_addr
                0x00000000       0x10 C:\Users\Данила Кондрашов\AppData\Local\Temp\VMBuilds\LAB8_NEW\stm32duino_genericSTM32F103C6\Release\core.a(dma_f1.c.o)
 .text.dma_set_per_addr
                0x00000000       0x10 C:\Users\Данила Кондрашов\AppData\Local\Temp\VMBuilds\LAB8_NEW\stm32duino_genericSTM32F103C6\Release\core.a(dma_f1.c.o)
 .text.dma_setup_transfer
                0x00000000       0x36 C:\Users\Данила Кондрашов\AppData\Local\Temp\VMBuilds\LAB8_NEW\stm32duino_genericSTM32F103C6\Release\core.a(dma_f1.c.o)
 .bss.dma2Ch4_5
                0x00000000        0x4 C:\Users\Данила Кондрашов\AppData\Local\Temp\VMBuilds\LAB8_NEW\stm32duino_genericSTM32F103C6\Release\core.a(dma_f1.c.o)
 .text          0x00000000        0x0 C:\Users\Данила Кондрашов\AppData\Local\Temp\VMBuilds\LAB8_NEW\stm32duino_genericSTM32F103C6\Release\core.a(exti.c.o)
 .data          0x00000000        0x0 C:\Users\Данила Кондрашов\AppData\Local\Temp\VMBuilds\LAB8_NEW\stm32duino_genericSTM32F103C6\Release\core.a(exti.c.o)
 .bss           0x00000000        0x0 C:\Users\Данила Кондрашов\AppData\Local\Temp\VMBuilds\LAB8_NEW\stm32duino_genericSTM32F103C6\Release\core.a(exti.c.o)
 .text.exti_attach_callback
                0x00000000       0xac C:\Users\Данила Кондрашов\AppData\Local\Temp\VMBuilds\LAB8_NEW\stm32duino_genericSTM32F103C6\Release\core.a(exti.c.o)
 .text.exti_attach_interrupt
                0x00000000       0x10 C:\Users\Данила Кондрашов\AppData\Local\Temp\VMBuilds\LAB8_NEW\stm32duino_genericSTM32F103C6\Release\core.a(exti.c.o)
 .text.exti_detach_interrupt
                0x00000000       0x28 C:\Users\Данила Кондрашов\AppData\Local\Temp\VMBuilds\LAB8_NEW\stm32duino_genericSTM32F103C6\Release\core.a(exti.c.o)
 .text.exti_do_select
                0x00000000       0x1a C:\Users\Данила Кондрашов\AppData\Local\Temp\VMBuilds\LAB8_NEW\stm32duino_genericSTM32F103C6\Release\core.a(exti.c.o)
 .text          0x00000000        0x0 C:\Users\Данила Кондрашов\AppData\Local\Temp\VMBuilds\LAB8_NEW\stm32duino_genericSTM32F103C6\Release\core.a(exti_f1.c.o)
 .data          0x00000000        0x0 C:\Users\Данила Кондрашов\AppData\Local\Temp\VMBuilds\LAB8_NEW\stm32duino_genericSTM32F103C6\Release\core.a(exti_f1.c.o)
 .bss           0x00000000        0x0 C:\Users\Данила Кондрашов\AppData\Local\Temp\VMBuilds\LAB8_NEW\stm32duino_genericSTM32F103C6\Release\core.a(exti_f1.c.o)
 .text.exti_select
                0x00000000       0x18 C:\Users\Данила Кондрашов\AppData\Local\Temp\VMBuilds\LAB8_NEW\stm32duino_genericSTM32F103C6\Release\core.a(exti_f1.c.o)
 .text          0x00000000        0x0 C:\Users\Данила Кондрашов\AppData\Local\Temp\VMBuilds\LAB8_NEW\stm32duino_genericSTM32F103C6\Release\core.a(flash.c.o)
 .data          0x00000000        0x0 C:\Users\Данила Кондрашов\AppData\Local\Temp\VMBuilds\LAB8_NEW\stm32duino_genericSTM32F103C6\Release\core.a(flash.c.o)
 .bss           0x00000000        0x0 C:\Users\Данила Кондрашов\AppData\Local\Temp\VMBuilds\LAB8_NEW\stm32duino_genericSTM32F103C6\Release\core.a(flash.c.o)
 .text          0x00000000        0x0 C:\Users\Данила Кондрашов\AppData\Local\Temp\VMBuilds\LAB8_NEW\stm32duino_genericSTM32F103C6\Release\core.a(gpio_f1.c.o)
 .data          0x00000000        0x0 C:\Users\Данила Кондрашов\AppData\Local\Temp\VMBuilds\LAB8_NEW\stm32duino_genericSTM32F103C6\Release\core.a(gpio_f1.c.o)
 .bss           0x00000000        0x0 C:\Users\Данила Кондрашов\AppData\Local\Temp\VMBuilds\LAB8_NEW\stm32duino_genericSTM32F103C6\Release\core.a(gpio_f1.c.o)
 .text.gpio_get_mode
                0x00000000       0x2a C:\Users\Данила Кондрашов\AppData\Local\Temp\VMBuilds\LAB8_NEW\stm32duino_genericSTM32F103C6\Release\core.a(gpio_f1.c.o)
 .text.afio_is_remapped
                0x00000000       0x20 C:\Users\Данила Кондрашов\AppData\Local\Temp\VMBuilds\LAB8_NEW\stm32duino_genericSTM32F103C6\Release\core.a(gpio_f1.c.o)
 .rodata.GPIOA  0x00000000        0x4 C:\Users\Данила Кондрашов\AppData\Local\Temp\VMBuilds\LAB8_NEW\stm32duino_genericSTM32F103C6\Release\core.a(gpio_f1.c.o)
 .rodata.GPIOB  0x00000000        0x4 C:\Users\Данила Кондрашов\AppData\Local\Temp\VMBuilds\LAB8_NEW\stm32duino_genericSTM32F103C6\Release\core.a(gpio_f1.c.o)
 .rodata.GPIOD  0x00000000        0x4 C:\Users\Данила Кондрашов\AppData\Local\Temp\VMBuilds\LAB8_NEW\stm32duino_genericSTM32F103C6\Release\core.a(gpio_f1.c.o)
 .text          0x00000000        0x0 C:\Users\Данила Кондрашов\AppData\Local\Temp\VMBuilds\LAB8_NEW\stm32duino_genericSTM32F103C6\Release\core.a(i2c.c.o)
 .data          0x00000000        0x0 C:\Users\Данила Кондрашов\AppData\Local\Temp\VMBuilds\LAB8_NEW\stm32duino_genericSTM32F103C6\Release\core.a(i2c.c.o)
 .bss           0x00000000        0x0 C:\Users\Данила Кондрашов\AppData\Local\Temp\VMBuilds\LAB8_NEW\stm32duino_genericSTM32F103C6\Release\core.a(i2c.c.o)
 .text.i2c_slave_enable
                0x00000000        0x8 C:\Users\Данила Кондрашов\AppData\Local\Temp\VMBuilds\LAB8_NEW\stm32duino_genericSTM32F103C6\Release\core.a(i2c.c.o)
 .text.i2c_slave_attach_recv_handler
                0x00000000        0xa C:\Users\Данила Кондрашов\AppData\Local\Temp\VMBuilds\LAB8_NEW\stm32duino_genericSTM32F103C6\Release\core.a(i2c.c.o)
 .text.i2c_slave_attach_transmit_handler
                0x00000000        0xa C:\Users\Данила Кондрашов\AppData\Local\Temp\VMBuilds\LAB8_NEW\stm32duino_genericSTM32F103C6\Release\core.a(i2c.c.o)
 .text          0x00000000        0x0 C:\Users\Данила Кондрашов\AppData\Local\Temp\VMBuilds\LAB8_NEW\stm32duino_genericSTM32F103C6\Release\core.a(i2c_f1.c.o)
 .data          0x00000000        0x0 C:\Users\Данила Кондрашов\AppData\Local\Temp\VMBuilds\LAB8_NEW\stm32duino_genericSTM32F103C6\Release\core.a(i2c_f1.c.o)
 .bss           0x00000000        0x0 C:\Users\Данила Кондрашов\AppData\Local\Temp\VMBuilds\LAB8_NEW\stm32duino_genericSTM32F103C6\Release\core.a(i2c_f1.c.o)
 .rodata.I2C2   0x00000000        0x4 C:\Users\Данила Кондрашов\AppData\Local\Temp\VMBuilds\LAB8_NEW\stm32duino_genericSTM32F103C6\Release\core.a(i2c_f1.c.o)
 .text          0x00000000        0x0 C:\Users\Данила Кондрашов\AppData\Local\Temp\VMBuilds\LAB8_NEW\stm32duino_genericSTM32F103C6\Release\core.a(nvic.c.o)
 .data          0x00000000        0x0 C:\Users\Данила Кондрашов\AppData\Local\Temp\VMBuilds\LAB8_NEW\stm32duino_genericSTM32F103C6\Release\core.a(nvic.c.o)
 .bss           0x00000000        0x0 C:\Users\Данила Кондрашов\AppData\Local\Temp\VMBuilds\LAB8_NEW\stm32duino_genericSTM32F103C6\Release\core.a(nvic.c.o)
 .text.nvic_set_vector_table
                0x00000000       0x14 C:\Users\Данила Кондрашов\AppData\Local\Temp\VMBuilds\LAB8_NEW\stm32duino_genericSTM32F103C6\Release\core.a(nvic.c.o)
 .text.nvic_sys_reset
                0x00000000       0x1c C:\Users\Данила Кондрашов\AppData\Local\Temp\VMBuilds\LAB8_NEW\stm32duino_genericSTM32F103C6\Release\core.a(nvic.c.o)
 .text          0x00000000        0x0 C:\Users\Данила Кондрашов\AppData\Local\Temp\VMBuilds\LAB8_NEW\stm32duino_genericSTM32F103C6\Release\core.a(rcc.c.o)
 .data          0x00000000        0x0 C:\Users\Данила Кондрашов\AppData\Local\Temp\VMBuilds\LAB8_NEW\stm32duino_genericSTM32F103C6\Release\core.a(rcc.c.o)
 .bss           0x00000000        0x0 C:\Users\Данила Кондрашов\AppData\Local\Temp\VMBuilds\LAB8_NEW\stm32duino_genericSTM32F103C6\Release\core.a(rcc.c.o)
 .text.rcc_is_clk_on
                0x00000000       0x1e C:\Users\Данила Кондрашов\AppData\Local\Temp\VMBuilds\LAB8_NEW\stm32duino_genericSTM32F103C6\Release\core.a(rcc.c.o)
 .text          0x00000000        0x0 C:\Users\Данила Кондрашов\AppData\Local\Temp\VMBuilds\LAB8_NEW\stm32duino_genericSTM32F103C6\Release\core.a(rcc_f1.c.o)
 .data          0x00000000        0x0 C:\Users\Данила Кондрашов\AppData\Local\Temp\VMBuilds\LAB8_NEW\stm32duino_genericSTM32F103C6\Release\core.a(rcc_f1.c.o)
 .bss           0x00000000        0x0 C:\Users\Данила Кондрашов\AppData\Local\Temp\VMBuilds\LAB8_NEW\stm32duino_genericSTM32F103C6\Release\core.a(rcc_f1.c.o)
 .text.rcc_clk_init
                0x00000000       0x3c C:\Users\Данила Кондрашов\AppData\Local\Temp\VMBuilds\LAB8_NEW\stm32duino_genericSTM32F103C6\Release\core.a(rcc_f1.c.o)
 .text          0x00000000        0x0 C:\Users\Данила Кондрашов\AppData\Local\Temp\VMBuilds\LAB8_NEW\stm32duino_genericSTM32F103C6\Release\core.a(systick.c.o)
 .data          0x00000000        0x0 C:\Users\Данила Кондрашов\AppData\Local\Temp\VMBuilds\LAB8_NEW\stm32duino_genericSTM32F103C6\Release\core.a(systick.c.o)
 .bss           0x00000000        0x0 C:\Users\Данила Кондрашов\AppData\Local\Temp\VMBuilds\LAB8_NEW\stm32duino_genericSTM32F103C6\Release\core.a(systick.c.o)
 .text.systick_disable
                0x00000000        0xc C:\Users\Данила Кондрашов\AppData\Local\Temp\VMBuilds\LAB8_NEW\stm32duino_genericSTM32F103C6\Release\core.a(systick.c.o)
 .text.systick_enable
                0x00000000        0xc C:\Users\Данила Кондрашов\AppData\Local\Temp\VMBuilds\LAB8_NEW\stm32duino_genericSTM32F103C6\Release\core.a(systick.c.o)
 .text.systick_attach_callback
                0x00000000        0xc C:\Users\Данила Кондрашов\AppData\Local\Temp\VMBuilds\LAB8_NEW\stm32duino_genericSTM32F103C6\Release\core.a(systick.c.o)
 .text          0x00000000        0x0 C:\Users\Данила Кондрашов\AppData\Local\Temp\VMBuilds\LAB8_NEW\stm32duino_genericSTM32F103C6\Release\core.a(timer.c.o)
 .data          0x00000000        0x0 C:\Users\Данила Кондрашов\AppData\Local\Temp\VMBuilds\LAB8_NEW\stm32duino_genericSTM32F103C6\Release\core.a(timer.c.o)
 .bss           0x00000000        0x0 C:\Users\Данила Кондрашов\AppData\Local\Temp\VMBuilds\LAB8_NEW\stm32duino_genericSTM32F103C6\Release\core.a(timer.c.o)
 .text.timer_disable
                0x00000000       0x12 C:\Users\Данила Кондрашов\AppData\Local\Temp\VMBuilds\LAB8_NEW\stm32duino_genericSTM32F103C6\Release\core.a(timer.c.o)
 .text.get_direction
                0x00000000        0xe C:\Users\Данила Кондрашов\AppData\Local\Temp\VMBuilds\LAB8_NEW\stm32duino_genericSTM32F103C6\Release\core.a(timer.c.o)
 .rodata.TIMER1
                0x00000000        0x4 C:\Users\Данила Кондрашов\AppData\Local\Temp\VMBuilds\LAB8_NEW\stm32duino_genericSTM32F103C6\Release\core.a(timer.c.o)
 .rodata.TIMER2
                0x00000000        0x4 C:\Users\Данила Кондрашов\AppData\Local\Temp\VMBuilds\LAB8_NEW\stm32duino_genericSTM32F103C6\Release\core.a(timer.c.o)
 .rodata.TIMER3
                0x00000000        0x4 C:\Users\Данила Кондрашов\AppData\Local\Temp\VMBuilds\LAB8_NEW\stm32duino_genericSTM32F103C6\Release\core.a(timer.c.o)
 .rodata.TIMER4
                0x00000000        0x4 C:\Users\Данила Кондрашов\AppData\Local\Temp\VMBuilds\LAB8_NEW\stm32duino_genericSTM32F103C6\Release\core.a(timer.c.o)
 .text          0x00000000        0x0 C:\Users\Данила Кондрашов\AppData\Local\Temp\VMBuilds\LAB8_NEW\stm32duino_genericSTM32F103C6\Release\core.a(usart_f1.c.o)
 .data          0x00000000        0x0 C:\Users\Данила Кондрашов\AppData\Local\Temp\VMBuilds\LAB8_NEW\stm32duino_genericSTM32F103C6\Release\core.a(usart_f1.c.o)
 .bss           0x00000000        0x0 C:\Users\Данила Кондрашов\AppData\Local\Temp\VMBuilds\LAB8_NEW\stm32duino_genericSTM32F103C6\Release\core.a(usart_f1.c.o)
 .text.usart_foreach
                0x00000000       0x24 C:\Users\Данила Кондрашов\AppData\Local\Temp\VMBuilds\LAB8_NEW\stm32duino_genericSTM32F103C6\Release\core.a(usart_f1.c.o)
 .text          0x00000000        0x0 C:\Users\Данила Кондрашов\AppData\Local\Temp\VMBuilds\LAB8_NEW\stm32duino_genericSTM32F103C6\Release\core.a(usart_private.c.o)
 .data          0x00000000        0x0 C:\Users\Данила Кондрашов\AppData\Local\Temp\VMBuilds\LAB8_NEW\stm32duino_genericSTM32F103C6\Release\core.a(usart_private.c.o)
 .bss           0x00000000        0x0 C:\Users\Данила Кондрашов\AppData\Local\Temp\VMBuilds\LAB8_NEW\stm32duino_genericSTM32F103C6\Release\core.a(usart_private.c.o)
 .text          0x00000000        0x0 C:\Users\Данила Кондрашов\AppData\Local\Temp\VMBuilds\LAB8_NEW\stm32duino_genericSTM32F103C6\Release\core.a(util.c.o)
 .data          0x00000000        0x0 C:\Users\Данила Кондрашов\AppData\Local\Temp\VMBuilds\LAB8_NEW\stm32duino_genericSTM32F103C6\Release\core.a(util.c.o)
 .bss           0x00000000        0x0 C:\Users\Данила Кондрашов\AppData\Local\Temp\VMBuilds\LAB8_NEW\stm32duino_genericSTM32F103C6\Release\core.a(util.c.o)
 .text.usart_putc
                0x00000000       0x1c C:\Users\Данила Кондрашов\AppData\Local\Temp\VMBuilds\LAB8_NEW\stm32duino_genericSTM32F103C6\Release\core.a(util.c.o)
 .text.usart_putstr
                0x00000000       0x16 C:\Users\Данила Кондрашов\AppData\Local\Temp\VMBuilds\LAB8_NEW\stm32duino_genericSTM32F103C6\Release\core.a(util.c.o)
 .text._fail    0x00000000       0x64 C:\Users\Данила Кондрашов\AppData\Local\Temp\VMBuilds\LAB8_NEW\stm32duino_genericSTM32F103C6\Release\core.a(util.c.o)
 .text.__assert_func
                0x00000000        0x8 C:\Users\Данила Кондрашов\AppData\Local\Temp\VMBuilds\LAB8_NEW\stm32duino_genericSTM32F103C6\Release\core.a(util.c.o)
 .text.abort    0x00000000       0x1c C:\Users\Данила Кондрашов\AppData\Local\Temp\VMBuilds\LAB8_NEW\stm32duino_genericSTM32F103C6\Release\core.a(util.c.o)
 .rodata.str1.1
                0x00000000       0x42 C:\Users\Данила Кондрашов\AppData\Local\Temp\VMBuilds\LAB8_NEW\stm32duino_genericSTM32F103C6\Release\core.a(util.c.o)
 .text          0x00000000        0x0 C:\Users\Данила Кондрашов\AppData\Local\Temp\VMBuilds\LAB8_NEW\stm32duino_genericSTM32F103C6\Release\core.a(usb.c.o)
 .data          0x00000000        0x0 C:\Users\Данила Кондрашов\AppData\Local\Temp\VMBuilds\LAB8_NEW\stm32duino_genericSTM32F103C6\Release\core.a(usb.c.o)
 .bss           0x00000000        0x0 C:\Users\Данила Кондрашов\AppData\Local\Temp\VMBuilds\LAB8_NEW\stm32duino_genericSTM32F103C6\Release\core.a(usb.c.o)
 .text.usb_init_usblib
                0x00000000       0x48 C:\Users\Данила Кондрашов\AppData\Local\Temp\VMBuilds\LAB8_NEW\stm32duino_genericSTM32F103C6\Release\core.a(usb.c.o)
 .text.usb_power_off
                0x00000000       0x14 C:\Users\Данила Кондрашов\AppData\Local\Temp\VMBuilds\LAB8_NEW\stm32duino_genericSTM32F103C6\Release\core.a(usb.c.o)
 .text          0x00000000        0x0 C:\Users\Данила Кондрашов\AppData\Local\Temp\VMBuilds\LAB8_NEW\stm32duino_genericSTM32F103C6\Release\core.a(usb_cdcacm.c.o)
 .data          0x00000000        0x0 C:\Users\Данила Кондрашов\AppData\Local\Temp\VMBuilds\LAB8_NEW\stm32duino_genericSTM32F103C6\Release\core.a(usb_cdcacm.c.o)
 .bss           0x00000000        0x0 C:\Users\Данила Кондрашов\AppData\Local\Temp\VMBuilds\LAB8_NEW\stm32duino_genericSTM32F103C6\Release\core.a(usb_cdcacm.c.o)
 .text.usbSetConfiguration
                0x00000000       0x1c C:\Users\Данила Кондрашов\AppData\Local\Temp\VMBuilds\LAB8_NEW\stm32duino_genericSTM32F103C6\Release\core.a(usb_cdcacm.c.o)
 .text.usbSetDeviceAddress
                0x00000000       0x10 C:\Users\Данила Кондрашов\AppData\Local\Temp\VMBuilds\LAB8_NEW\stm32duino_genericSTM32F103C6\Release\core.a(usb_cdcacm.c.o)
 .text.vcomDataTxCb
                0x00000000       0xa0 C:\Users\Данила Кондрашов\AppData\Local\Temp\VMBuilds\LAB8_NEW\stm32duino_genericSTM32F103C6\Release\core.a(usb_cdcacm.c.o)
 .text.vcomDataRxCb
                0x00000000       0x7c C:\Users\Данила Кондрашов\AppData\Local\Temp\VMBuilds\LAB8_NEW\stm32duino_genericSTM32F103C6\Release\core.a(usb_cdcacm.c.o)
 .text.usb_cdcacm_set_hooks
                0x00000000       0x1c C:\Users\Данила Кондрашов\AppData\Local\Temp\VMBuilds\LAB8_NEW\stm32duino_genericSTM32F103C6\Release\core.a(usb_cdcacm.c.o)
 .text.usb_cdcacm_enable
                0x00000000       0x38 C:\Users\Данила Кондрашов\AppData\Local\Temp\VMBuilds\LAB8_NEW\stm32duino_genericSTM32F103C6\Release\core.a(usb_cdcacm.c.o)
 .text.usb_cdcacm_disable
                0x00000000       0x20 C:\Users\Данила Кондрашов\AppData\Local\Temp\VMBuilds\LAB8_NEW\stm32duino_genericSTM32F103C6\Release\core.a(usb_cdcacm.c.o)
 .text.usb_cdcacm_tx
                0x00000000       0x60 C:\Users\Данила Кондрашов\AppData\Local\Temp\VMBuilds\LAB8_NEW\stm32duino_genericSTM32F103C6\Release\core.a(usb_cdcacm.c.o)
 .text.usb_cdcacm_putc
                0x00000000       0x1a C:\Users\Данила Кондрашов\AppData\Local\Temp\VMBuilds\LAB8_NEW\stm32duino_genericSTM32F103C6\Release\core.a(usb_cdcacm.c.o)
 .text.usb_cdcacm_data_available
                0x00000000       0x18 C:\Users\Данила Кондрашов\AppData\Local\Temp\VMBuilds\LAB8_NEW\stm32duino_genericSTM32F103C6\Release\core.a(usb_cdcacm.c.o)
 .text.usb_cdcacm_is_transmitting
                0x00000000       0x14 C:\Users\Данила Кондрашов\AppData\Local\Temp\VMBuilds\LAB8_NEW\stm32duino_genericSTM32F103C6\Release\core.a(usb_cdcacm.c.o)
 .text.usb_cdcacm_get_pending
                0x00000000       0x18 C:\Users\Данила Кондрашов\AppData\Local\Temp\VMBuilds\LAB8_NEW\stm32duino_genericSTM32F103C6\Release\core.a(usb_cdcacm.c.o)
 .text.usb_cdcacm_tx_available
                0x00000000        0xc C:\Users\Данила Кондрашов\AppData\Local\Temp\VMBuilds\LAB8_NEW\stm32duino_genericSTM32F103C6\Release\core.a(usb_cdcacm.c.o)
 .text.usb_cdcacm_peek
                0x00000000       0x38 C:\Users\Данила Кондрашов\AppData\Local\Temp\VMBuilds\LAB8_NEW\stm32duino_genericSTM32F103C6\Release\core.a(usb_cdcacm.c.o)
 .text.usb_cdcacm_rx
                0x00000000       0x34 C:\Users\Данила Кондрашов\AppData\Local\Temp\VMBuilds\LAB8_NEW\stm32duino_genericSTM32F103C6\Release\core.a(usb_cdcacm.c.o)
 .text.usb_cdcacm_peek_ex
                0x00000000       0x3c C:\Users\Данила Кондрашов\AppData\Local\Temp\VMBuilds\LAB8_NEW\stm32duino_genericSTM32F103C6\Release\core.a(usb_cdcacm.c.o)
 .text.usb_cdcacm_peek_char
                0x00000000       0x24 C:\Users\Данила Кондрашов\AppData\Local\Temp\VMBuilds\LAB8_NEW\stm32duino_genericSTM32F103C6\Release\core.a(usb_cdcacm.c.o)
 .text.usb_cdcacm_get_dtr
                0x00000000       0x10 C:\Users\Данила Кондрашов\AppData\Local\Temp\VMBuilds\LAB8_NEW\stm32duino_genericSTM32F103C6\Release\core.a(usb_cdcacm.c.o)
 .text.usb_cdcacm_get_rts
                0x00000000       0x10 C:\Users\Данила Кондрашов\AppData\Local\Temp\VMBuilds\LAB8_NEW\stm32duino_genericSTM32F103C6\Release\core.a(usb_cdcacm.c.o)
 .text.usb_cdcacm_get_line_coding
                0x00000000       0x18 C:\Users\Данила Кондрашов\AppData\Local\Temp\VMBuilds\LAB8_NEW\stm32duino_genericSTM32F103C6\Release\core.a(usb_cdcacm.c.o)
 .text.usb_cdcacm_get_baud
                0x00000000        0xc C:\Users\Данила Кондрашов\AppData\Local\Temp\VMBuilds\LAB8_NEW\stm32duino_genericSTM32F103C6\Release\core.a(usb_cdcacm.c.o)
 .text.usb_cdcacm_get_stop_bits
                0x00000000        0xc C:\Users\Данила Кондрашов\AppData\Local\Temp\VMBuilds\LAB8_NEW\stm32duino_genericSTM32F103C6\Release\core.a(usb_cdcacm.c.o)
 .text.usb_cdcacm_get_parity
                0x00000000        0xc C:\Users\Данила Кондрашов\AppData\Local\Temp\VMBuilds\LAB8_NEW\stm32duino_genericSTM32F103C6\Release\core.a(usb_cdcacm.c.o)
 .text.usb_cdcacm_get_n_data_bits
                0x00000000        0xc C:\Users\Данила Кондрашов\AppData\Local\Temp\VMBuilds\LAB8_NEW\stm32duino_genericSTM32F103C6\Release\core.a(usb_cdcacm.c.o)
 .bss.vcomBufferTx
                0x00000000      0x100 C:\Users\Данила Кондрашов\AppData\Local\Temp\VMBuilds\LAB8_NEW\stm32duino_genericSTM32F103C6\Release\core.a(usb_cdcacm.c.o)
 .data.ep_int_in
                0x00000000       0x1c C:\Users\Данила Кондрашов\AppData\Local\Temp\VMBuilds\LAB8_NEW\stm32duino_genericSTM32F103C6\Release\core.a(usb_cdcacm.c.o)
 .bss.rx_hook   0x00000000        0x4 C:\Users\Данила Кондрашов\AppData\Local\Temp\VMBuilds\LAB8_NEW\stm32duino_genericSTM32F103C6\Release\core.a(usb_cdcacm.c.o)
 .bss.vcomBufferRx
                0x00000000      0x100 C:\Users\Данила Кондрашов\AppData\Local\Temp\VMBuilds\LAB8_NEW\stm32duino_genericSTM32F103C6\Release\core.a(usb_cdcacm.c.o)
 .data.ep_int_out
                0x00000000       0x1c C:\Users\Данила Кондрашов\AppData\Local\Temp\VMBuilds\LAB8_NEW\stm32duino_genericSTM32F103C6\Release\core.a(usb_cdcacm.c.o)
 .data.User_Standard_Requests
                0x00000000       0x24 C:\Users\Данила Кондрашов\AppData\Local\Temp\VMBuilds\LAB8_NEW\stm32duino_genericSTM32F103C6\Release\core.a(usb_cdcacm.c.o)
 .text          0x00000000        0x0 C:\Users\Данила Кондрашов\AppData\Local\Temp\VMBuilds\LAB8_NEW\stm32duino_genericSTM32F103C6\Release\core.a(usb_reg_map.c.o)
 .data          0x00000000        0x0 C:\Users\Данила Кондрашов\AppData\Local\Temp\VMBuilds\LAB8_NEW\stm32duino_genericSTM32F103C6\Release\core.a(usb_reg_map.c.o)
 .bss           0x00000000        0x0 C:\Users\Данила Кондрашов\AppData\Local\Temp\VMBuilds\LAB8_NEW\stm32duino_genericSTM32F103C6\Release\core.a(usb_reg_map.c.o)
 .text          0x00000000        0x0 C:\Users\Данила Кондрашов\AppData\Local\Temp\VMBuilds\LAB8_NEW\stm32duino_genericSTM32F103C6\Release\core.a(usb_core.c.o)
 .data          0x00000000        0x0 C:\Users\Данила Кондрашов\AppData\Local\Temp\VMBuilds\LAB8_NEW\stm32duino_genericSTM32F103C6\Release\core.a(usb_core.c.o)
 .bss           0x00000000        0x0 C:\Users\Данила Кондрашов\AppData\Local\Temp\VMBuilds\LAB8_NEW\stm32duino_genericSTM32F103C6\Release\core.a(usb_core.c.o)
 .text          0x00000000        0x0 C:\Users\Данила Кондрашов\AppData\Local\Temp\VMBuilds\LAB8_NEW\stm32duino_genericSTM32F103C6\Release\core.a(usb_init.c.o)
 .data          0x00000000        0x0 C:\Users\Данила Кондрашов\AppData\Local\Temp\VMBuilds\LAB8_NEW\stm32duino_genericSTM32F103C6\Release\core.a(usb_init.c.o)
 .bss           0x00000000        0x0 C:\Users\Данила Кондрашов\AppData\Local\Temp\VMBuilds\LAB8_NEW\stm32duino_genericSTM32F103C6\Release\core.a(usb_init.c.o)
 .text.USB_Init
                0x00000000       0x38 C:\Users\Данила Кондрашов\AppData\Local\Temp\VMBuilds\LAB8_NEW\stm32duino_genericSTM32F103C6\Release\core.a(usb_init.c.o)
 .text          0x00000000        0x0 C:\Users\Данила Кондрашов\AppData\Local\Temp\VMBuilds\LAB8_NEW\stm32duino_genericSTM32F103C6\Release\core.a(usb_mem.c.o)
 .data          0x00000000        0x0 C:\Users\Данила Кондрашов\AppData\Local\Temp\VMBuilds\LAB8_NEW\stm32duino_genericSTM32F103C6\Release\core.a(usb_mem.c.o)
 .bss           0x00000000        0x0 C:\Users\Данила Кондрашов\AppData\Local\Temp\VMBuilds\LAB8_NEW\stm32duino_genericSTM32F103C6\Release\core.a(usb_mem.c.o)
 .text          0x00000000        0x0 C:\Users\Данила Кондрашов\AppData\Local\Temp\VMBuilds\LAB8_NEW\stm32duino_genericSTM32F103C6\Release\core.a(usb_regs.c.o)
 .data          0x00000000        0x0 C:\Users\Данила Кондрашов\AppData\Local\Temp\VMBuilds\LAB8_NEW\stm32duino_genericSTM32F103C6\Release\core.a(usb_regs.c.o)
 .bss           0x00000000        0x0 C:\Users\Данила Кондрашов\AppData\Local\Temp\VMBuilds\LAB8_NEW\stm32duino_genericSTM32F103C6\Release\core.a(usb_regs.c.o)
 .text.SetCNTR  0x00000000        0xc C:\Users\Данила Кондрашов\AppData\Local\Temp\VMBuilds\LAB8_NEW\stm32duino_genericSTM32F103C6\Release\core.a(usb_regs.c.o)
 .text.GetCNTR  0x00000000        0xc C:\Users\Данила Кондрашов\AppData\Local\Temp\VMBuilds\LAB8_NEW\stm32duino_genericSTM32F103C6\Release\core.a(usb_regs.c.o)
 .text.SetISTR  0x00000000        0xc C:\Users\Данила Кондрашов\AppData\Local\Temp\VMBuilds\LAB8_NEW\stm32duino_genericSTM32F103C6\Release\core.a(usb_regs.c.o)
 .text.GetISTR  0x00000000        0xc C:\Users\Данила Кондрашов\AppData\Local\Temp\VMBuilds\LAB8_NEW\stm32duino_genericSTM32F103C6\Release\core.a(usb_regs.c.o)
 .text.GetFNR   0x00000000        0xc C:\Users\Данила Кондрашов\AppData\Local\Temp\VMBuilds\LAB8_NEW\stm32duino_genericSTM32F103C6\Release\core.a(usb_regs.c.o)
 .text.SetDADDR
                0x00000000        0xc C:\Users\Данила Кондрашов\AppData\Local\Temp\VMBuilds\LAB8_NEW\stm32duino_genericSTM32F103C6\Release\core.a(usb_regs.c.o)
 .text.GetDADDR
                0x00000000        0xc C:\Users\Данила Кондрашов\AppData\Local\Temp\VMBuilds\LAB8_NEW\stm32duino_genericSTM32F103C6\Release\core.a(usb_regs.c.o)
 .text.SetBTABLE
                0x00000000       0x10 C:\Users\Данила Кондрашов\AppData\Local\Temp\VMBuilds\LAB8_NEW\stm32duino_genericSTM32F103C6\Release\core.a(usb_regs.c.o)
 .text.GetBTABLE
                0x00000000        0xc C:\Users\Данила Кондрашов\AppData\Local\Temp\VMBuilds\LAB8_NEW\stm32duino_genericSTM32F103C6\Release\core.a(usb_regs.c.o)
 .text.SetENDPOINT
                0x00000000        0xe C:\Users\Данила Кондрашов\AppData\Local\Temp\VMBuilds\LAB8_NEW\stm32duino_genericSTM32F103C6\Release\core.a(usb_regs.c.o)
 .text.GetENDPOINT
                0x00000000       0x10 C:\Users\Данила Кондрашов\AppData\Local\Temp\VMBuilds\LAB8_NEW\stm32duino_genericSTM32F103C6\Release\core.a(usb_regs.c.o)
 .text.SetEPType
                0x00000000       0x1c C:\Users\Данила Кондрашов\AppData\Local\Temp\VMBuilds\LAB8_NEW\stm32duino_genericSTM32F103C6\Release\core.a(usb_regs.c.o)
 .text.GetEPType
                0x00000000       0x12 C:\Users\Данила Кондрашов\AppData\Local\Temp\VMBuilds\LAB8_NEW\stm32duino_genericSTM32F103C6\Release\core.a(usb_regs.c.o)
 .text.SetEPRxStatus
                0x00000000       0x2a C:\Users\Данила Кондрашов\AppData\Local\Temp\VMBuilds\LAB8_NEW\stm32duino_genericSTM32F103C6\Release\core.a(usb_regs.c.o)
 .text.SetDouBleBuffEPStall
                0x00000000       0x24 C:\Users\Данила Кондрашов\AppData\Local\Temp\VMBuilds\LAB8_NEW\stm32duino_genericSTM32F103C6\Release\core.a(usb_regs.c.o)
 .text.GetEPTxStatus
                0x00000000       0x12 C:\Users\Данила Кондрашов\AppData\Local\Temp\VMBuilds\LAB8_NEW\stm32duino_genericSTM32F103C6\Release\core.a(usb_regs.c.o)
 .text.GetEPRxStatus
                0x00000000       0x12 C:\Users\Данила Кондрашов\AppData\Local\Temp\VMBuilds\LAB8_NEW\stm32duino_genericSTM32F103C6\Release\core.a(usb_regs.c.o)
 .text.SetEPTxValid
                0x00000000       0x1e C:\Users\Данила Кондрашов\AppData\Local\Temp\VMBuilds\LAB8_NEW\stm32duino_genericSTM32F103C6\Release\core.a(usb_regs.c.o)
 .text.SetEPRxValid
                0x00000000       0x1e C:\Users\Данила Кондрашов\AppData\Local\Temp\VMBuilds\LAB8_NEW\stm32duino_genericSTM32F103C6\Release\core.a(usb_regs.c.o)
 .text.SetEP_KIND
                0x00000000       0x1e C:\Users\Данила Кондрашов\AppData\Local\Temp\VMBuilds\LAB8_NEW\stm32duino_genericSTM32F103C6\Release\core.a(usb_regs.c.o)
 .text.ClearEP_KIND
                0x00000000       0x1c C:\Users\Данила Кондрашов\AppData\Local\Temp\VMBuilds\LAB8_NEW\stm32duino_genericSTM32F103C6\Release\core.a(usb_regs.c.o)
 .text.Clear_Status_Out
                0x00000000       0x1c C:\Users\Данила Кондрашов\AppData\Local\Temp\VMBuilds\LAB8_NEW\stm32duino_genericSTM32F103C6\Release\core.a(usb_regs.c.o)
 .text.Set_Status_Out
                0x00000000       0x1e C:\Users\Данила Кондрашов\AppData\Local\Temp\VMBuilds\LAB8_NEW\stm32duino_genericSTM32F103C6\Release\core.a(usb_regs.c.o)
 .text.SetEPDoubleBuff
                0x00000000       0x1e C:\Users\Данила Кондрашов\AppData\Local\Temp\VMBuilds\LAB8_NEW\stm32duino_genericSTM32F103C6\Release\core.a(usb_regs.c.o)
 .text.ClearEPDoubleBuff
                0x00000000       0x1c C:\Users\Данила Кондрашов\AppData\Local\Temp\VMBuilds\LAB8_NEW\stm32duino_genericSTM32F103C6\Release\core.a(usb_regs.c.o)
 .text.GetTxStallStatus
                0x00000000       0x1a C:\Users\Данила Кондрашов\AppData\Local\Temp\VMBuilds\LAB8_NEW\stm32duino_genericSTM32F103C6\Release\core.a(usb_regs.c.o)
 .text.GetRxStallStatus
                0x00000000       0x1a C:\Users\Данила Кондрашов\AppData\Local\Temp\VMBuilds\LAB8_NEW\stm32duino_genericSTM32F103C6\Release\core.a(usb_regs.c.o)
 .text.ClearEP_CTR_RX
                0x00000000       0x18 C:\Users\Данила Кондрашов\AppData\Local\Temp\VMBuilds\LAB8_NEW\stm32duino_genericSTM32F103C6\Release\core.a(usb_regs.c.o)
 .text.ClearEP_CTR_TX
                0x00000000       0x1c C:\Users\Данила Кондрашов\AppData\Local\Temp\VMBuilds\LAB8_NEW\stm32duino_genericSTM32F103C6\Release\core.a(usb_regs.c.o)
 .text.ToggleDTOG_RX
                0x00000000       0x20 C:\Users\Данила Кондрашов\AppData\Local\Temp\VMBuilds\LAB8_NEW\stm32duino_genericSTM32F103C6\Release\core.a(usb_regs.c.o)
 .text.ToggleDTOG_TX
                0x00000000       0x20 C:\Users\Данила Кондрашов\AppData\Local\Temp\VMBuilds\LAB8_NEW\stm32duino_genericSTM32F103C6\Release\core.a(usb_regs.c.o)
 .text.SetEPAddress
                0x00000000       0x1e C:\Users\Данила Кондрашов\AppData\Local\Temp\VMBuilds\LAB8_NEW\stm32duino_genericSTM32F103C6\Release\core.a(usb_regs.c.o)
 .text.GetEPAddress
                0x00000000       0x12 C:\Users\Данила Кондрашов\AppData\Local\Temp\VMBuilds\LAB8_NEW\stm32duino_genericSTM32F103C6\Release\core.a(usb_regs.c.o)
 .text.SetEPTxAddr
                0x00000000       0x20 C:\Users\Данила Кондрашов\AppData\Local\Temp\VMBuilds\LAB8_NEW\stm32duino_genericSTM32F103C6\Release\core.a(usb_regs.c.o)
 .text.SetEPRxAddr
                0x00000000       0x20 C:\Users\Данила Кондрашов\AppData\Local\Temp\VMBuilds\LAB8_NEW\stm32duino_genericSTM32F103C6\Release\core.a(usb_regs.c.o)
 .text.SetEPCountRxReg
                0x00000000       0x26 C:\Users\Данила Кондрашов\AppData\Local\Temp\VMBuilds\LAB8_NEW\stm32duino_genericSTM32F103C6\Release\core.a(usb_regs.c.o)
 .text.GetEPTxCount
                0x00000000       0x20 C:\Users\Данила Кондрашов\AppData\Local\Temp\VMBuilds\LAB8_NEW\stm32duino_genericSTM32F103C6\Release\core.a(usb_regs.c.o)
 .text.GetEPRxCount
                0x00000000       0x20 C:\Users\Данила Кондрашов\AppData\Local\Temp\VMBuilds\LAB8_NEW\stm32duino_genericSTM32F103C6\Release\core.a(usb_regs.c.o)
 .text.SetEPDblBuffAddr
                0x00000000       0x38 C:\Users\Данила Кондрашов\AppData\Local\Temp\VMBuilds\LAB8_NEW\stm32duino_genericSTM32F103C6\Release\core.a(usb_regs.c.o)
 .text.SetEPDblBuf0Addr
                0x00000000       0x20 C:\Users\Данила Кондрашов\AppData\Local\Temp\VMBuilds\LAB8_NEW\stm32duino_genericSTM32F103C6\Release\core.a(usb_regs.c.o)
 .text.SetEPDblBuf1Addr
                0x00000000       0x20 C:\Users\Данила Кондрашов\AppData\Local\Temp\VMBuilds\LAB8_NEW\stm32duino_genericSTM32F103C6\Release\core.a(usb_regs.c.o)
 .text.GetEPDblBuf0Addr
                0x00000000       0x1c C:\Users\Данила Кондрашов\AppData\Local\Temp\VMBuilds\LAB8_NEW\stm32duino_genericSTM32F103C6\Release\core.a(usb_regs.c.o)
 .text.GetEPDblBuf1Addr
                0x00000000       0x1c C:\Users\Данила Кондрашов\AppData\Local\Temp\VMBuilds\LAB8_NEW\stm32duino_genericSTM32F103C6\Release\core.a(usb_regs.c.o)
 .text.SetEPDblBuffCount
                0x00000000       0xa8 C:\Users\Данила Кондрашов\AppData\Local\Temp\VMBuilds\LAB8_NEW\stm32duino_genericSTM32F103C6\Release\core.a(usb_regs.c.o)
 .text.SetEPDblBuf0Count
                0x00000000       0x5c C:\Users\Данила Кондрашов\AppData\Local\Temp\VMBuilds\LAB8_NEW\stm32duino_genericSTM32F103C6\Release\core.a(usb_regs.c.o)
 .text.SetEPDblBuf1Count
                0x00000000       0x5c C:\Users\Данила Кондрашов\AppData\Local\Temp\VMBuilds\LAB8_NEW\stm32duino_genericSTM32F103C6\Release\core.a(usb_regs.c.o)
 .text.GetEPDblBuf0Count
                0x00000000       0x20 C:\Users\Данила Кондрашов\AppData\Local\Temp\VMBuilds\LAB8_NEW\stm32duino_genericSTM32F103C6\Release\core.a(usb_regs.c.o)
 .text.GetEPDblBuf1Count
                0x00000000       0x20 C:\Users\Данила Кондрашов\AppData\Local\Temp\VMBuilds\LAB8_NEW\stm32duino_genericSTM32F103C6\Release\core.a(usb_regs.c.o)
 .text.GetEPDblBufDir
                0x00000000       0x44 C:\Users\Данила Кондрашов\AppData\Local\Temp\VMBuilds\LAB8_NEW\stm32duino_genericSTM32F103C6\Release\core.a(usb_regs.c.o)
 .text.FreeUserBuffer
                0x00000000       0x3a C:\Users\Данила Кондрашов\AppData\Local\Temp\VMBuilds\LAB8_NEW\stm32duino_genericSTM32F103C6\Release\core.a(usb_regs.c.o)
 .text.ToWord   0x00000000        0x6 C:\Users\Данила Кондрашов\AppData\Local\Temp\VMBuilds\LAB8_NEW\stm32duino_genericSTM32F103C6\Release\core.a(usb_regs.c.o)
 .text.ByteSwap
                0x00000000        0xa C:\Users\Данила Кондрашов\AppData\Local\Temp\VMBuilds\LAB8_NEW\stm32duino_genericSTM32F103C6\Release\core.a(usb_regs.c.o)
 .text          0x00000000        0x0 C:\Users\Данила Кондрашов\AppData\Local\Temp\VMBuilds\LAB8_NEW\stm32duino_genericSTM32F103C6\Release\core.a(cxxabi-compat.cpp.o)
 .data          0x00000000        0x0 C:\Users\Данила Кондрашов\AppData\Local\Temp\VMBuilds\LAB8_NEW\stm32duino_genericSTM32F103C6\Release\core.a(cxxabi-compat.cpp.o)
 .bss           0x00000000        0x0 C:\Users\Данила Кондрашов\AppData\Local\Temp\VMBuilds\LAB8_NEW\stm32duino_genericSTM32F103C6\Release\core.a(cxxabi-compat.cpp.o)
 .text.__cxa_demangle
                0x00000000        0xc C:\Users\Данила Кондрашов\AppData\Local\Temp\VMBuilds\LAB8_NEW\stm32duino_genericSTM32F103C6\Release\core.a(cxxabi-compat.cpp.o)
 .group         0x00000000        0x8 C:\Users\Данила Кондрашов\AppData\Local\Temp\VMBuilds\LAB8_NEW\stm32duino_genericSTM32F103C6\Release\core.a(HardwareSerial.cpp.o)
 .text          0x00000000        0x0 C:\Users\Данила Кондрашов\AppData\Local\Temp\VMBuilds\LAB8_NEW\stm32duino_genericSTM32F103C6\Release\core.a(HardwareSerial.cpp.o)
 .data          0x00000000        0x0 C:\Users\Данила Кондрашов\AppData\Local\Temp\VMBuilds\LAB8_NEW\stm32duino_genericSTM32F103C6\Release\core.a(HardwareSerial.cpp.o)
 .bss           0x00000000        0x0 C:\Users\Данила Кондрашов\AppData\Local\Temp\VMBuilds\LAB8_NEW\stm32duino_genericSTM32F103C6\Release\core.a(HardwareSerial.cpp.o)
 .text._ZN14HardwareSerial3endEv
                0x00000000        0x6 C:\Users\Данила Кондрашов\AppData\Local\Temp\VMBuilds\LAB8_NEW\stm32duino_genericSTM32F103C6\Release\core.a(HardwareSerial.cpp.o)
 .text._ZN14HardwareSerial17availableForWriteEv
                0x00000000       0x12 C:\Users\Данила Кондрашов\AppData\Local\Temp\VMBuilds\LAB8_NEW\stm32duino_genericSTM32F103C6\Release\core.a(HardwareSerial.cpp.o)
 .rodata._ZTV6Stream
                0x00000000       0x28 C:\Users\Данила Кондрашов\AppData\Local\Temp\VMBuilds\LAB8_NEW\stm32duino_genericSTM32F103C6\Release\core.a(HardwareSerial.cpp.o)
 .text          0x00000000        0x0 C:\Users\Данила Кондрашов\AppData\Local\Temp\VMBuilds\LAB8_NEW\stm32duino_genericSTM32F103C6\Release\core.a(main.cpp.o)
 .data          0x00000000        0x0 C:\Users\Данила Кондрашов\AppData\Local\Temp\VMBuilds\LAB8_NEW\stm32duino_genericSTM32F103C6\Release\core.a(main.cpp.o)
 .bss           0x00000000        0x0 C:\Users\Данила Кондрашов\AppData\Local\Temp\VMBuilds\LAB8_NEW\stm32duino_genericSTM32F103C6\Release\core.a(main.cpp.o)
 .text          0x00000000        0x0 C:\Users\Данила Кондрашов\AppData\Local\Temp\VMBuilds\LAB8_NEW\stm32duino_genericSTM32F103C6\Release\core.a(Print.cpp.o)
 .data          0x00000000        0x0 C:\Users\Данила Кондрашов\AppData\Local\Temp\VMBuilds\LAB8_NEW\stm32duino_genericSTM32F103C6\Release\core.a(Print.cpp.o)
 .bss           0x00000000        0x0 C:\Users\Данила Кондрашов\AppData\Local\Temp\VMBuilds\LAB8_NEW\stm32duino_genericSTM32F103C6\Release\core.a(Print.cpp.o)
 .text._ZN5Print5printERK6String
                0x00000000       0x10 C:\Users\Данила Кондрашов\AppData\Local\Temp\VMBuilds\LAB8_NEW\stm32duino_genericSTM32F103C6\Release\core.a(Print.cpp.o)
 .text._ZN5Print5printERK9Printable
                0x00000000       0x10 C:\Users\Данила Кондрашов\AppData\Local\Temp\VMBuilds\LAB8_NEW\stm32duino_genericSTM32F103C6\Release\core.a(Print.cpp.o)
 .text._ZN5Print7printlnERK6String
                0x00000000       0x14 C:\Users\Данила Кондрашов\AppData\Local\Temp\VMBuilds\LAB8_NEW\stm32duino_genericSTM32F103C6\Release\core.a(Print.cpp.o)
 .text._ZN5Print7printlnEc
                0x00000000       0x14 C:\Users\Данила Кондрашов\AppData\Local\Temp\VMBuilds\LAB8_NEW\stm32duino_genericSTM32F103C6\Release\core.a(Print.cpp.o)
 .text._ZN5Print7printlnERK9Printable
                0x00000000       0x14 C:\Users\Данила Кондрашов\AppData\Local\Temp\VMBuilds\LAB8_NEW\stm32duino_genericSTM32F103C6\Release\core.a(Print.cpp.o)
 .text._ZN5Print7printlnEii
                0x00000000       0x14 C:\Users\Данила Кондрашов\AppData\Local\Temp\VMBuilds\LAB8_NEW\stm32duino_genericSTM32F103C6\Release\core.a(Print.cpp.o)
 .text._ZN5Print5printEli
                0x00000000       0x12 C:\Users\Данила Кондрашов\AppData\Local\Temp\VMBuilds\LAB8_NEW\stm32duino_genericSTM32F103C6\Release\core.a(Print.cpp.o)
 .text._ZN5Print7printlnEli
                0x00000000       0x1c C:\Users\Данила Кондрашов\AppData\Local\Temp\VMBuilds\LAB8_NEW\stm32duino_genericSTM32F103C6\Release\core.a(Print.cpp.o)
 .text._ZN5Print7printlnExi
                0x00000000       0x1a C:\Users\Данила Кондрашов\AppData\Local\Temp\VMBuilds\LAB8_NEW\stm32duino_genericSTM32F103C6\Release\core.a(Print.cpp.o)
 .text._ZN5Print5printEyi
                0x00000000        0xa C:\Users\Данила Кондрашов\AppData\Local\Temp\VMBuilds\LAB8_NEW\stm32duino_genericSTM32F103C6\Release\core.a(Print.cpp.o)
 .text._ZN5Print5printEhi
                0x00000000       0x14 C:\Users\Данила Кондрашов\AppData\Local\Temp\VMBuilds\LAB8_NEW\stm32duino_genericSTM32F103C6\Release\core.a(Print.cpp.o)
 .text._ZN5Print7printlnEhi
                0x00000000       0x14 C:\Users\Данила Кондрашов\AppData\Local\Temp\VMBuilds\LAB8_NEW\stm32duino_genericSTM32F103C6\Release\core.a(Print.cpp.o)
 .text._ZN5Print5printEji
                0x00000000       0x14 C:\Users\Данила Кондрашов\AppData\Local\Temp\VMBuilds\LAB8_NEW\stm32duino_genericSTM32F103C6\Release\core.a(Print.cpp.o)
 .text._ZN5Print7printlnEji
                0x00000000       0x14 C:\Users\Данила Кондрашов\AppData\Local\Temp\VMBuilds\LAB8_NEW\stm32duino_genericSTM32F103C6\Release\core.a(Print.cpp.o)
 .text._ZN5Print5printEmi
                0x00000000       0x14 C:\Users\Данила Кондрашов\AppData\Local\Temp\VMBuilds\LAB8_NEW\stm32duino_genericSTM32F103C6\Release\core.a(Print.cpp.o)
 .text._ZN5Print7printlnEmi
                0x00000000       0x1e C:\Users\Данила Кондрашов\AppData\Local\Temp\VMBuilds\LAB8_NEW\stm32duino_genericSTM32F103C6\Release\core.a(Print.cpp.o)
 .text._ZN5Print7printlnEyi
                0x00000000       0x1c C:\Users\Данила Кондрашов\AppData\Local\Temp\VMBuilds\LAB8_NEW\stm32duino_genericSTM32F103C6\Release\core.a(Print.cpp.o)
 .text._ZN5Print7printlnEdi
                0x00000000       0x1c C:\Users\Данила Кондрашов\AppData\Local\Temp\VMBuilds\LAB8_NEW\stm32duino_genericSTM32F103C6\Release\core.a(Print.cpp.o)
 .rodata._ZTV5Print
                0x00000000       0x18 C:\Users\Данила Кондрашов\AppData\Local\Temp\VMBuilds\LAB8_NEW\stm32duino_genericSTM32F103C6\Release\core.a(Print.cpp.o)
 .text          0x00000000        0x0 C:\Users\Данила Кондрашов\AppData\Local\Temp\VMBuilds\LAB8_NEW\stm32duino_genericSTM32F103C6\Release\core.a(pwm.cpp.o)
 .data          0x00000000        0x0 C:\Users\Данила Кондрашов\AppData\Local\Temp\VMBuilds\LAB8_NEW\stm32duino_genericSTM32F103C6\Release\core.a(pwm.cpp.o)
 .bss           0x00000000        0x0 C:\Users\Данила Кондрашов\AppData\Local\Temp\VMBuilds\LAB8_NEW\stm32duino_genericSTM32F103C6\Release\core.a(pwm.cpp.o)
 .text          0x00000000        0x0 C:\Users\Данила Кондрашов\AppData\Local\Temp\VMBuilds\LAB8_NEW\stm32duino_genericSTM32F103C6\Release\core.a(tone.cpp.o)
 .data          0x00000000        0x0 C:\Users\Данила Кондрашов\AppData\Local\Temp\VMBuilds\LAB8_NEW\stm32duino_genericSTM32F103C6\Release\core.a(tone.cpp.o)
 .bss           0x00000000        0x0 C:\Users\Данила Кондрашов\AppData\Local\Temp\VMBuilds\LAB8_NEW\stm32duino_genericSTM32F103C6\Release\core.a(tone.cpp.o)
 .text._Z6noTonem
                0x00000000        0x8 C:\Users\Данила Кондрашов\AppData\Local\Temp\VMBuilds\LAB8_NEW\stm32duino_genericSTM32F103C6\Release\core.a(tone.cpp.o)
 .text._Z19setToneTimerChannelhh
                0x00000000       0x14 C:\Users\Данила Кондрашов\AppData\Local\Temp\VMBuilds\LAB8_NEW\stm32duino_genericSTM32F103C6\Release\core.a(tone.cpp.o)
 .text          0x00000000        0x0 C:\Users\Данила Кондрашов\AppData\Local\Temp\VMBuilds\LAB8_NEW\stm32duino_genericSTM32F103C6\Release\core.a(wirish_digital.cpp.o)
 .data          0x00000000        0x0 C:\Users\Данила Кондрашов\AppData\Local\Temp\VMBuilds\LAB8_NEW\stm32duino_genericSTM32F103C6\Release\core.a(wirish_digital.cpp.o)
 .bss           0x00000000        0x0 C:\Users\Данила Кондрашов\AppData\Local\Temp\VMBuilds\LAB8_NEW\stm32duino_genericSTM32F103C6\Release\core.a(wirish_digital.cpp.o)
 .text          0x00000000        0x0 C:\Users\Данила Кондрашов\AppData\Local\Temp\VMBuilds\LAB8_NEW\stm32duino_genericSTM32F103C6\Release\core.a(wirish_time.cpp.o)
 .data          0x00000000        0x0 C:\Users\Данила Кондрашов\AppData\Local\Temp\VMBuilds\LAB8_NEW\stm32duino_genericSTM32F103C6\Release\core.a(wirish_time.cpp.o)
 .bss           0x00000000        0x0 C:\Users\Данила Кондрашов\AppData\Local\Temp\VMBuilds\LAB8_NEW\stm32duino_genericSTM32F103C6\Release\core.a(wirish_time.cpp.o)
 .text.delayMicroseconds
                0x00000000       0x10 C:\Users\Данила Кондрашов\AppData\Local\Temp\VMBuilds\LAB8_NEW\stm32duino_genericSTM32F103C6\Release\core.a(wirish_time.cpp.o)
 .text          0x00000000        0x0 C:\Users\Данила Кондрашов\AppData\Local\Temp\VMBuilds\LAB8_NEW\stm32duino_genericSTM32F103C6\Release\core.a(wirish_digital_f1.cpp.o)
 .data          0x00000000        0x0 C:\Users\Данила Кондрашов\AppData\Local\Temp\VMBuilds\LAB8_NEW\stm32duino_genericSTM32F103C6\Release\core.a(wirish_digital_f1.cpp.o)
 .bss           0x00000000        0x0 C:\Users\Данила Кондрашов\AppData\Local\Temp\VMBuilds\LAB8_NEW\stm32duino_genericSTM32F103C6\Release\core.a(wirish_digital_f1.cpp.o)
 .text          0x00000000        0x0 C:\Users\Данила Кондрашов\AppData\Local\Temp\VMBuilds\LAB8_NEW\stm32duino_genericSTM32F103C6\Release\core.a(hooks.c.o)
 .data          0x00000000        0x0 C:\Users\Данила Кондрашов\AppData\Local\Temp\VMBuilds\LAB8_NEW\stm32duino_genericSTM32F103C6\Release\core.a(hooks.c.o)
 .bss           0x00000000        0x0 C:\Users\Данила Кондрашов\AppData\Local\Temp\VMBuilds\LAB8_NEW\stm32duino_genericSTM32F103C6\Release\core.a(hooks.c.o)
 .text          0x00000000        0x0 C:\Users\Данила Кондрашов\AppData\Local\Temp\VMBuilds\LAB8_NEW\stm32duino_genericSTM32F103C6\Release\core.a(dma.c.o)
 .data          0x00000000        0x0 C:\Users\Данила Кондрашов\AppData\Local\Temp\VMBuilds\LAB8_NEW\stm32duino_genericSTM32F103C6\Release\core.a(dma.c.o)
 .bss           0x00000000        0x0 C:\Users\Данила Кондрашов\AppData\Local\Temp\VMBuilds\LAB8_NEW\stm32duino_genericSTM32F103C6\Release\core.a(dma.c.o)
 .text.dma_init
                0x00000000        0x6 C:\Users\Данила Кондрашов\AppData\Local\Temp\VMBuilds\LAB8_NEW\stm32duino_genericSTM32F103C6\Release\core.a(dma.c.o)
 .text._dma_addr_type
                0x00000000       0x28 C:\Users\Данила Кондрашов\AppData\Local\Temp\VMBuilds\LAB8_NEW\stm32duino_genericSTM32F103C6\Release\core.a(dma.c.o)
 .text          0x00000000        0x0 C:\Users\Данила Кондрашов\AppData\Local\Temp\VMBuilds\LAB8_NEW\stm32duino_genericSTM32F103C6\Release\core.a(gpio.c.o)
 .data          0x00000000        0x0 C:\Users\Данила Кондрашов\AppData\Local\Temp\VMBuilds\LAB8_NEW\stm32duino_genericSTM32F103C6\Release\core.a(gpio.c.o)
 .bss           0x00000000        0x0 C:\Users\Данила Кондрашов\AppData\Local\Temp\VMBuilds\LAB8_NEW\stm32duino_genericSTM32F103C6\Release\core.a(gpio.c.o)
 .text          0x00000000        0x0 C:\Users\Данила Кондрашов\AppData\Local\Temp\VMBuilds\LAB8_NEW\stm32duino_genericSTM32F103C6\Release\core.a(usart.c.o)
 .data          0x00000000        0x0 C:\Users\Данила Кондрашов\AppData\Local\Temp\VMBuilds\LAB8_NEW\stm32duino_genericSTM32F103C6\Release\core.a(usart.c.o)
 .bss           0x00000000        0x0 C:\Users\Данила Кондрашов\AppData\Local\Temp\VMBuilds\LAB8_NEW\stm32duino_genericSTM32F103C6\Release\core.a(usart.c.o)
 .text.usart_disable
                0x00000000       0x38 C:\Users\Данила Кондрашов\AppData\Local\Temp\VMBuilds\LAB8_NEW\stm32duino_genericSTM32F103C6\Release\core.a(usart.c.o)
 .text.usart_rx
                0x00000000       0x58 C:\Users\Данила Кондрашов\AppData\Local\Temp\VMBuilds\LAB8_NEW\stm32duino_genericSTM32F103C6\Release\core.a(usart.c.o)
 .text.usart_putudec
                0x00000000       0x44 C:\Users\Данила Кондрашов\AppData\Local\Temp\VMBuilds\LAB8_NEW\stm32duino_genericSTM32F103C6\Release\core.a(usart.c.o)
 .text          0x00000000        0x0 C:\Users\Данила Кондрашов\AppData\Local\Temp\VMBuilds\LAB8_NEW\stm32duino_genericSTM32F103C6\Release\core.a(HardwareTimer.cpp.o)
 .data          0x00000000        0x0 C:\Users\Данила Кондрашов\AppData\Local\Temp\VMBuilds\LAB8_NEW\stm32duino_genericSTM32F103C6\Release\core.a(HardwareTimer.cpp.o)
 .bss           0x00000000        0x0 C:\Users\Данила Кондрашов\AppData\Local\Temp\VMBuilds\LAB8_NEW\stm32duino_genericSTM32F103C6\Release\core.a(HardwareTimer.cpp.o)
 .text._ZN13HardwareTimer17getPrescaleFactorEv
                0x00000000        0xc C:\Users\Данила Кондрашов\AppData\Local\Temp\VMBuilds\LAB8_NEW\stm32duino_genericSTM32F103C6\Release\core.a(HardwareTimer.cpp.o)
 .text._ZN13HardwareTimer17setPrescaleFactorEm
                0x00000000        0xc C:\Users\Данила Кондрашов\AppData\Local\Temp\VMBuilds\LAB8_NEW\stm32duino_genericSTM32F103C6\Release\core.a(HardwareTimer.cpp.o)
 .text._ZN13HardwareTimer11getOverflowEv
                0x00000000        0xa C:\Users\Данила Кондрашов\AppData\Local\Temp\VMBuilds\LAB8_NEW\stm32duino_genericSTM32F103C6\Release\core.a(HardwareTimer.cpp.o)
 .text._ZN13HardwareTimer11setOverflowEt
                0x00000000        0x8 C:\Users\Данила Кондрашов\AppData\Local\Temp\VMBuilds\LAB8_NEW\stm32duino_genericSTM32F103C6\Release\core.a(HardwareTimer.cpp.o)
 .text._ZN13HardwareTimer8getCountEv
                0x00000000        0xa C:\Users\Данила Кондрашов\AppData\Local\Temp\VMBuilds\LAB8_NEW\stm32duino_genericSTM32F103C6\Release\core.a(HardwareTimer.cpp.o)
 .text._ZN13HardwareTimer8setCountEt
                0x00000000       0x12 C:\Users\Данила Кондрашов\AppData\Local\Temp\VMBuilds\LAB8_NEW\stm32duino_genericSTM32F103C6\Release\core.a(HardwareTimer.cpp.o)
 .text._ZN13HardwareTimer9setPeriodEm
                0x00000000       0x3e C:\Users\Данила Кондрашов\AppData\Local\Temp\VMBuilds\LAB8_NEW\stm32duino_genericSTM32F103C6\Release\core.a(HardwareTimer.cpp.o)
 .text._ZN13HardwareTimer10getCompareEi
                0x00000000       0x16 C:\Users\Данила Кондрашов\AppData\Local\Temp\VMBuilds\LAB8_NEW\stm32duino_genericSTM32F103C6\Release\core.a(HardwareTimer.cpp.o)
 .text._ZN13HardwareTimer9enableDMAEi
                0x00000000       0x18 C:\Users\Данила Кондрашов\AppData\Local\Temp\VMBuilds\LAB8_NEW\stm32duino_genericSTM32F103C6\Release\core.a(HardwareTimer.cpp.o)
 .text._ZN13HardwareTimer10disableDMAEi
                0x00000000       0x18 C:\Users\Данила Кондрашов\AppData\Local\Temp\VMBuilds\LAB8_NEW\stm32duino_genericSTM32F103C6\Release\core.a(HardwareTimer.cpp.o)
 .text._ZN13HardwareTimer17setMasterModeTrGoEm
                0x00000000       0x14 C:\Users\Данила Кондрашов\AppData\Local\Temp\VMBuilds\LAB8_NEW\stm32duino_genericSTM32F103C6\Release\core.a(HardwareTimer.cpp.o)
 .data          0x00000000        0x0 c:/users/данила кондрашов/appdata/local/arduino15/packages/arduino/tools/arm-none-eabi-gcc/4.8.3-2014q1/bin/../lib/gcc/arm-none-eabi/4.8.3/armv7-m\libgcc.a(_arm_addsubdf3.o)
 .bss           0x00000000        0x0 c:/users/данила кондрашов/appdata/local/arduino15/packages/arduino/tools/arm-none-eabi-gcc/4.8.3-2014q1/bin/../lib/gcc/arm-none-eabi/4.8.3/armv7-m\libgcc.a(_arm_addsubdf3.o)
 .data          0x00000000        0x0 c:/users/данила кондрашов/appdata/local/arduino15/packages/arduino/tools/arm-none-eabi-gcc/4.8.3-2014q1/bin/../lib/gcc/arm-none-eabi/4.8.3/armv7-m\libgcc.a(_arm_muldivdf3.o)
 .bss           0x00000000        0x0 c:/users/данила кондрашов/appdata/local/arduino15/packages/arduino/tools/arm-none-eabi-gcc/4.8.3-2014q1/bin/../lib/gcc/arm-none-eabi/4.8.3/armv7-m\libgcc.a(_arm_muldivdf3.o)
 .data          0x00000000        0x0 c:/users/данила кондрашов/appdata/local/arduino15/packages/arduino/tools/arm-none-eabi-gcc/4.8.3-2014q1/bin/../lib/gcc/arm-none-eabi/4.8.3/armv7-m\libgcc.a(_arm_cmpdf2.o)
 .bss           0x00000000        0x0 c:/users/данила кондрашов/appdata/local/arduino15/packages/arduino/tools/arm-none-eabi-gcc/4.8.3-2014q1/bin/../lib/gcc/arm-none-eabi/4.8.3/armv7-m\libgcc.a(_arm_cmpdf2.o)
 .data          0x00000000        0x0 c:/users/данила кондрашов/appdata/local/arduino15/packages/arduino/tools/arm-none-eabi-gcc/4.8.3-2014q1/bin/../lib/gcc/arm-none-eabi/4.8.3/armv7-m\libgcc.a(_arm_fixdfsi.o)
 .bss           0x00000000        0x0 c:/users/данила кондрашов/appdata/local/arduino15/packages/arduino/tools/arm-none-eabi-gcc/4.8.3-2014q1/bin/../lib/gcc/arm-none-eabi/4.8.3/armv7-m\libgcc.a(_arm_fixdfsi.o)
 .data          0x00000000        0x0 c:/users/данила кондрашов/appdata/local/arduino15/packages/arduino/tools/arm-none-eabi-gcc/4.8.3-2014q1/bin/../lib/gcc/arm-none-eabi/4.8.3/armv7-m\libgcc.a(_arm_addsubsf3.o)
 .bss           0x00000000        0x0 c:/users/данила кондрашов/appdata/local/arduino15/packages/arduino/tools/arm-none-eabi-gcc/4.8.3-2014q1/bin/../lib/gcc/arm-none-eabi/4.8.3/armv7-m\libgcc.a(_arm_addsubsf3.o)
 .data          0x00000000        0x0 c:/users/данила кондрашов/appdata/local/arduino15/packages/arduino/tools/arm-none-eabi-gcc/4.8.3-2014q1/bin/../lib/gcc/arm-none-eabi/4.8.3/armv7-m\libgcc.a(_arm_muldivsf3.o)
 .bss           0x00000000        0x0 c:/users/данила кондрашов/appdata/local/arduino15/packages/arduino/tools/arm-none-eabi-gcc/4.8.3-2014q1/bin/../lib/gcc/arm-none-eabi/4.8.3/armv7-m\libgcc.a(_arm_muldivsf3.o)
 .text          0x00000000       0x40 c:/users/данила кондрашов/appdata/local/arduino15/packages/arduino/tools/arm-none-eabi-gcc/4.8.3-2014q1/bin/../lib/gcc/arm-none-eabi/4.8.3/armv7-m\libgcc.a(_arm_fixunssfsi.o)
 .data          0x00000000        0x0 c:/users/данила кондрашов/appdata/local/arduino15/packages/arduino/tools/arm-none-eabi-gcc/4.8.3-2014q1/bin/../lib/gcc/arm-none-eabi/4.8.3/armv7-m\libgcc.a(_arm_fixunssfsi.o)
 .bss           0x00000000        0x0 c:/users/данила кондрашов/appdata/local/arduino15/packages/arduino/tools/arm-none-eabi-gcc/4.8.3-2014q1/bin/../lib/gcc/arm-none-eabi/4.8.3/armv7-m\libgcc.a(_arm_fixunssfsi.o)
 .data          0x00000000        0x0 c:/users/данила кондрашов/appdata/local/arduino15/packages/arduino/tools/arm-none-eabi-gcc/4.8.3-2014q1/bin/../lib/gcc/arm-none-eabi/4.8.3/armv7-m\libgcc.a(_aeabi_uldivmod.o)
 .bss           0x00000000        0x0 c:/users/данила кондрашов/appdata/local/arduino15/packages/arduino/tools/arm-none-eabi-gcc/4.8.3-2014q1/bin/../lib/gcc/arm-none-eabi/4.8.3/armv7-m\libgcc.a(_aeabi_uldivmod.o)
 .data          0x00000000        0x0 c:/users/данила кондрашов/appdata/local/arduino15/packages/arduino/tools/arm-none-eabi-gcc/4.8.3-2014q1/bin/../lib/gcc/arm-none-eabi/4.8.3/armv7-m\libgcc.a(_fixdfdi.o)
 .bss           0x00000000        0x0 c:/users/данила кондрашов/appdata/local/arduino15/packages/arduino/tools/arm-none-eabi-gcc/4.8.3-2014q1/bin/../lib/gcc/arm-none-eabi/4.8.3/armv7-m\libgcc.a(_fixdfdi.o)
 .data          0x00000000        0x0 c:/users/данила кондрашов/appdata/local/arduino15/packages/arduino/tools/arm-none-eabi-gcc/4.8.3-2014q1/bin/../lib/gcc/arm-none-eabi/4.8.3/armv7-m\libgcc.a(_fixunsdfdi.o)
 .bss           0x00000000        0x0 c:/users/данила кондрашов/appdata/local/arduino15/packages/arduino/tools/arm-none-eabi-gcc/4.8.3-2014q1/bin/../lib/gcc/arm-none-eabi/4.8.3/armv7-m\libgcc.a(_fixunsdfdi.o)
 .data          0x00000000        0x0 c:/users/данила кондрашов/appdata/local/arduino15/packages/arduino/tools/arm-none-eabi-gcc/4.8.3-2014q1/bin/../lib/gcc/arm-none-eabi/4.8.3/armv7-m\libgcc.a(bpabi.o)
 .bss           0x00000000        0x0 c:/users/данила кондрашов/appdata/local/arduino15/packages/arduino/tools/arm-none-eabi-gcc/4.8.3-2014q1/bin/../lib/gcc/arm-none-eabi/4.8.3/armv7-m\libgcc.a(bpabi.o)
 .data          0x00000000        0x0 c:/users/данила кондрашов/appdata/local/arduino15/packages/arduino/tools/arm-none-eabi-gcc/4.8.3-2014q1/bin/../lib/gcc/arm-none-eabi/4.8.3/armv7-m\libgcc.a(_dvmd_tls.o)
 .bss           0x00000000        0x0 c:/users/данила кондрашов/appdata/local/arduino15/packages/arduino/tools/arm-none-eabi-gcc/4.8.3-2014q1/bin/../lib/gcc/arm-none-eabi/4.8.3/armv7-m\libgcc.a(_dvmd_tls.o)
 .data          0x00000000        0x0 c:/users/данила кондрашов/appdata/local/arduino15/packages/arduino/tools/arm-none-eabi-gcc/4.8.3-2014q1/bin/../lib/gcc/arm-none-eabi/4.8.3/armv7-m\libgcc.a(_arm_fixunsdfsi.o)
 .bss           0x00000000        0x0 c:/users/данила кондрашов/appdata/local/arduino15/packages/arduino/tools/arm-none-eabi-gcc/4.8.3-2014q1/bin/../lib/gcc/arm-none-eabi/4.8.3/armv7-m\libgcc.a(_arm_fixunsdfsi.o)
 .data          0x00000000        0x0 c:/users/данила кондрашов/appdata/local/arduino15/packages/arduino/tools/arm-none-eabi-gcc/4.8.3-2014q1/bin/../lib/gcc/arm-none-eabi/4.8.3/armv7-m\libgcc.a(_divdi3.o)
 .bss           0x00000000        0x0 c:/users/данила кондрашов/appdata/local/arduino15/packages/arduino/tools/arm-none-eabi-gcc/4.8.3-2014q1/bin/../lib/gcc/arm-none-eabi/4.8.3/armv7-m\libgcc.a(_divdi3.o)
 .ARM.extab     0x00000000        0x0 c:/users/данила кондрашов/appdata/local/arduino15/packages/arduino/tools/arm-none-eabi-gcc/4.8.3-2014q1/bin/../lib/gcc/arm-none-eabi/4.8.3/armv7-m\libgcc.a(_divdi3.o)
 .data          0x00000000        0x0 c:/users/данила кондрашов/appdata/local/arduino15/packages/arduino/tools/arm-none-eabi-gcc/4.8.3-2014q1/bin/../lib/gcc/arm-none-eabi/4.8.3/armv7-m\libgcc.a(_udivdi3.o)
 .bss           0x00000000        0x0 c:/users/данила кондрашов/appdata/local/arduino15/packages/arduino/tools/arm-none-eabi-gcc/4.8.3-2014q1/bin/../lib/gcc/arm-none-eabi/4.8.3/armv7-m\libgcc.a(_udivdi3.o)
 .ARM.extab     0x00000000        0x0 c:/users/данила кондрашов/appdata/local/arduino15/packages/arduino/tools/arm-none-eabi-gcc/4.8.3-2014q1/bin/../lib/gcc/arm-none-eabi/4.8.3/armv7-m\libgcc.a(_udivdi3.o)
 .text          0x00000000        0x0 c:/users/данила кондрашов/appdata/local/arduino15/packages/arduino/tools/arm-none-eabi-gcc/4.8.3-2014q1/bin/../lib/gcc/arm-none-eabi/4.8.3/../../../../arm-none-eabi/lib/armv7-m\libc_s.a(lib_a-errno.o)
 .data          0x00000000        0x0 c:/users/данила кондрашов/appdata/local/arduino15/packages/arduino/tools/arm-none-eabi-gcc/4.8.3-2014q1/bin/../lib/gcc/arm-none-eabi/4.8.3/../../../../arm-none-eabi/lib/armv7-m\libc_s.a(lib_a-errno.o)
 .bss           0x00000000        0x0 c:/users/данила кондрашов/appdata/local/arduino15/packages/arduino/tools/arm-none-eabi-gcc/4.8.3-2014q1/bin/../lib/gcc/arm-none-eabi/4.8.3/../../../../arm-none-eabi/lib/armv7-m\libc_s.a(lib_a-errno.o)
 .text.__errno  0x00000000        0xc c:/users/данила кондрашов/appdata/local/arduino15/packages/arduino/tools/arm-none-eabi-gcc/4.8.3-2014q1/bin/../lib/gcc/arm-none-eabi/4.8.3/../../../../arm-none-eabi/lib/armv7-m\libc_s.a(lib_a-errno.o)
 .text          0x00000000        0x0 c:/users/данила кондрашов/appdata/local/arduino15/packages/arduino/tools/arm-none-eabi-gcc/4.8.3-2014q1/bin/../lib/gcc/arm-none-eabi/4.8.3/../../../../arm-none-eabi/lib/armv7-m\libc_s.a(lib_a-exit.o)
 .data          0x00000000        0x0 c:/users/данила кондрашов/appdata/local/arduino15/packages/arduino/tools/arm-none-eabi-gcc/4.8.3-2014q1/bin/../lib/gcc/arm-none-eabi/4.8.3/../../../../arm-none-eabi/lib/armv7-m\libc_s.a(lib_a-exit.o)
 .bss           0x00000000        0x0 c:/users/данила кондрашов/appdata/local/arduino15/packages/arduino/tools/arm-none-eabi-gcc/4.8.3-2014q1/bin/../lib/gcc/arm-none-eabi/4.8.3/../../../../arm-none-eabi/lib/armv7-m\libc_s.a(lib_a-exit.o)
 .text.exit     0x00000000       0x28 c:/users/данила кондрашов/appdata/local/arduino15/packages/arduino/tools/arm-none-eabi-gcc/4.8.3-2014q1/bin/../lib/gcc/arm-none-eabi/4.8.3/../../../../arm-none-eabi/lib/armv7-m\libc_s.a(lib_a-exit.o)
 .text          0x00000000        0x0 c:/users/данила кондрашов/appdata/local/arduino15/packages/arduino/tools/arm-none-eabi-gcc/4.8.3-2014q1/bin/../lib/gcc/arm-none-eabi/4.8.3/../../../../arm-none-eabi/lib/armv7-m\libc_s.a(lib_a-impure.o)
 .data          0x00000000        0x0 c:/users/данила кондрашов/appdata/local/arduino15/packages/arduino/tools/arm-none-eabi-gcc/4.8.3-2014q1/bin/../lib/gcc/arm-none-eabi/4.8.3/../../../../arm-none-eabi/lib/armv7-m\libc_s.a(lib_a-impure.o)
 .bss           0x00000000        0x0 c:/users/данила кондрашов/appdata/local/arduino15/packages/arduino/tools/arm-none-eabi-gcc/4.8.3-2014q1/bin/../lib/gcc/arm-none-eabi/4.8.3/../../../../arm-none-eabi/lib/armv7-m\libc_s.a(lib_a-impure.o)
 .data.impure_data
                0x00000000       0x60 c:/users/данила кондрашов/appdata/local/arduino15/packages/arduino/tools/arm-none-eabi-gcc/4.8.3-2014q1/bin/../lib/gcc/arm-none-eabi/4.8.3/../../../../arm-none-eabi/lib/armv7-m\libc_s.a(lib_a-impure.o)
 .data._impure_ptr
                0x00000000        0x4 c:/users/данила кондрашов/appdata/local/arduino15/packages/arduino/tools/arm-none-eabi-gcc/4.8.3-2014q1/bin/../lib/gcc/arm-none-eabi/4.8.3/../../../../arm-none-eabi/lib/armv7-m\libc_s.a(lib_a-impure.o)
 .rodata.str1.1
                0x00000000        0x2 c:/users/данила кондрашов/appdata/local/arduino15/packages/arduino/tools/arm-none-eabi-gcc/4.8.3-2014q1/bin/../lib/gcc/arm-none-eabi/4.8.3/../../../../arm-none-eabi/lib/armv7-m\libc_s.a(lib_a-impure.o)
 .rodata._global_impure_ptr
                0x00000000        0x4 c:/users/данила кондрашов/appdata/local/arduino15/packages/arduino/tools/arm-none-eabi-gcc/4.8.3-2014q1/bin/../lib/gcc/arm-none-eabi/4.8.3/../../../../arm-none-eabi/lib/armv7-m\libc_s.a(lib_a-impure.o)
 .text          0x00000000        0x0 c:/users/данила кондрашов/appdata/local/arduino15/packages/arduino/tools/arm-none-eabi-gcc/4.8.3-2014q1/bin/../lib/gcc/arm-none-eabi/4.8.3/../../../../arm-none-eabi/lib/armv7-m\libc_s.a(lib_a-init.o)
 .data          0x00000000        0x0 c:/users/данила кондрашов/appdata/local/arduino15/packages/arduino/tools/arm-none-eabi-gcc/4.8.3-2014q1/bin/../lib/gcc/arm-none-eabi/4.8.3/../../../../arm-none-eabi/lib/armv7-m\libc_s.a(lib_a-init.o)
 .bss           0x00000000        0x0 c:/users/данила кондрашов/appdata/local/arduino15/packages/arduino/tools/arm-none-eabi-gcc/4.8.3-2014q1/bin/../lib/gcc/arm-none-eabi/4.8.3/../../../../arm-none-eabi/lib/armv7-m\libc_s.a(lib_a-init.o)
 .text          0x00000000        0x0 c:/users/данила кондрашов/appdata/local/arduino15/packages/arduino/tools/arm-none-eabi-gcc/4.8.3-2014q1/bin/../lib/gcc/arm-none-eabi/4.8.3/../../../../arm-none-eabi/lib/armv7-m\libc_s.a(lib_a-memset.o)
 .data          0x00000000        0x0 c:/users/данила кондрашов/appdata/local/arduino15/packages/arduino/tools/arm-none-eabi-gcc/4.8.3-2014q1/bin/../lib/gcc/arm-none-eabi/4.8.3/../../../../arm-none-eabi/lib/armv7-m\libc_s.a(lib_a-memset.o)
 .bss           0x00000000        0x0 c:/users/данила кондрашов/appdata/local/arduino15/packages/arduino/tools/arm-none-eabi-gcc/4.8.3-2014q1/bin/../lib/gcc/arm-none-eabi/4.8.3/../../../../arm-none-eabi/lib/armv7-m\libc_s.a(lib_a-memset.o)
 .text.memset   0x00000000       0x10 c:/users/данила кондрашов/appdata/local/arduino15/packages/arduino/tools/arm-none-eabi-gcc/4.8.3-2014q1/bin/../lib/gcc/arm-none-eabi/4.8.3/../../../../arm-none-eabi/lib/armv7-m\libc_s.a(lib_a-memset.o)
 .text          0x00000000        0x0 c:/users/данила кондрашов/appdata/local/arduino15/packages/arduino/tools/arm-none-eabi-gcc/4.8.3-2014q1/bin/../lib/gcc/arm-none-eabi/4.8.3/../../../../arm-none-eabi/lib/armv7-m\libc_s.a(lib_a-strcpy.o)
 .data          0x00000000        0x0 c:/users/данила кондрашов/appdata/local/arduino15/packages/arduino/tools/arm-none-eabi-gcc/4.8.3-2014q1/bin/../lib/gcc/arm-none-eabi/4.8.3/../../../../arm-none-eabi/lib/armv7-m\libc_s.a(lib_a-strcpy.o)
 .bss           0x00000000        0x0 c:/users/данила кондрашов/appdata/local/arduino15/packages/arduino/tools/arm-none-eabi-gcc/4.8.3-2014q1/bin/../lib/gcc/arm-none-eabi/4.8.3/../../../../arm-none-eabi/lib/armv7-m\libc_s.a(lib_a-strcpy.o)
 .text.strcpy   0x00000000       0x10 c:/users/данила кондрашов/appdata/local/arduino15/packages/arduino/tools/arm-none-eabi-gcc/4.8.3-2014q1/bin/../lib/gcc/arm-none-eabi/4.8.3/../../../../arm-none-eabi/lib/armv7-m\libc_s.a(lib_a-strcpy.o)
 .text          0x00000000        0x0 c:/users/данила кондрашов/appdata/local/arduino15/packages/arduino/tools/arm-none-eabi-gcc/4.8.3-2014q1/bin/../lib/gcc/arm-none-eabi/4.8.3/../../../../arm-none-eabi/lib/armv7-m\libc_s.a(lib_a-strlen.o)
 .data          0x00000000        0x0 c:/users/данила кондрашов/appdata/local/arduino15/packages/arduino/tools/arm-none-eabi-gcc/4.8.3-2014q1/bin/../lib/gcc/arm-none-eabi/4.8.3/../../../../arm-none-eabi/lib/armv7-m\libc_s.a(lib_a-strlen.o)
 .bss           0x00000000        0x0 c:/users/данила кондрашов/appdata/local/arduino15/packages/arduino/tools/arm-none-eabi-gcc/4.8.3-2014q1/bin/../lib/gcc/arm-none-eabi/4.8.3/../../../../arm-none-eabi/lib/armv7-m\libc_s.a(lib_a-strlen.o)
 .text          0x00000000        0x0 c:/users/данила кондрашов/appdata/local/arduino15/packages/arduino/tools/arm-none-eabi-gcc/4.8.3-2014q1/bin/../lib/gcc/arm-none-eabi/4.8.3/armv7-m/crtend.o
 .data          0x00000000        0x0 c:/users/данила кондрашов/appdata/local/arduino15/packages/arduino/tools/arm-none-eabi-gcc/4.8.3-2014q1/bin/../lib/gcc/arm-none-eabi/4.8.3/armv7-m/crtend.o
 .bss           0x00000000        0x0 c:/users/данила кондрашов/appdata/local/arduino15/packages/arduino/tools/arm-none-eabi-gcc/4.8.3-2014q1/bin/../lib/gcc/arm-none-eabi/4.8.3/armv7-m/crtend.o
 .eh_frame      0x00000000        0x4 c:/users/данила кондрашов/appdata/local/arduino15/packages/arduino/tools/arm-none-eabi-gcc/4.8.3-2014q1/bin/../lib/gcc/arm-none-eabi/4.8.3/armv7-m/crtend.o
 .jcr           0x00000000        0x4 c:/users/данила кондрашов/appdata/local/arduino15/packages/arduino/tools/arm-none-eabi-gcc/4.8.3-2014q1/bin/../lib/gcc/arm-none-eabi/4.8.3/armv7-m/crtend.o
 .text          0x00000000        0x0 c:/users/данила кондрашов/appdata/local/arduino15/packages/arduino/tools/arm-none-eabi-gcc/4.8.3-2014q1/bin/../lib/gcc/arm-none-eabi/4.8.3/armv7-m/crtn.o
 .data          0x00000000        0x0 c:/users/данила кондрашов/appdata/local/arduino15/packages/arduino/tools/arm-none-eabi-gcc/4.8.3-2014q1/bin/../lib/gcc/arm-none-eabi/4.8.3/armv7-m/crtn.o
 .bss           0x00000000        0x0 c:/users/данила кондрашов/appdata/local/arduino15/packages/arduino/tools/arm-none-eabi-gcc/4.8.3-2014q1/bin/../lib/gcc/arm-none-eabi/4.8.3/armv7-m/crtn.o

Memory Configuration

Name             Origin             Length             Attributes
ram              0x20000000         0x00002800         xrw
rom              0x08000000         0x00008000         xr
*default*        0x00000000         0xffffffff

Linker script and memory map

LOAD c:/users/данила кондрашов/appdata/local/arduino15/packages/arduino/tools/arm-none-eabi-gcc/4.8.3-2014q1/bin/../lib/gcc/arm-none-eabi/4.8.3/armv7-m/crti.o
LOAD c:/users/данила кондрашов/appdata/local/arduino15/packages/arduino/tools/arm-none-eabi-gcc/4.8.3-2014q1/bin/../lib/gcc/arm-none-eabi/4.8.3/armv7-m/crtbegin.o
LOAD c:/users/данила кондрашов/appdata/local/arduino15/packages/arduino/tools/arm-none-eabi-gcc/4.8.3-2014q1/bin/../lib/gcc/arm-none-eabi/4.8.3/../../../../arm-none-eabi/lib/armv7-m/crt0.o
LOAD c:/users/данила кондрашов/appdata/local/arduino15/packages/arduino/tools/arm-none-eabi-gcc/4.8.3-2014q1/bin/../lib/gcc/arm-none-eabi/4.8.3/armv7-m\libgcc.a
START GROUP
LOAD LAB8_NEW.cpp.o
LOAD LM75A_Arduino_library\M2M_LM75A.cpp.o
LOAD Wire\SoftWire.cpp.o
LOAD Wire\Wire.cpp.o
LOAD Wire\utility\WireBase.cpp.o
LOAD C:\Users\Данила Кондрашов\AppData\Local\Temp\VMBCore\arduino16x\1ff78a0346523d7d91af874899f893a8\variant\board.cpp.o
LOAD C:\Users\Данила Кондрашов\AppData\Local\Temp\VMBCore\arduino16x\1ff78a0346523d7d91af874899f893a8\variant\wirish\boards.cpp.o
LOAD C:\Users\Данила Кондрашов\AppData\Local\Temp\VMBCore\arduino16x\1ff78a0346523d7d91af874899f893a8\variant\wirish\boards_setup.cpp.o
LOAD C:\Users\Данила Кондрашов\AppData\Local\Temp\VMBCore\arduino16x\1ff78a0346523d7d91af874899f893a8\variant\start.S.o
LOAD C:\Users\Данила Кондрашов\AppData\Local\Temp\VMBCore\arduino16x\1ff78a0346523d7d91af874899f893a8\variant\start_c.c.o
LOAD C:\Users\Данила Кондрашов\AppData\Local\Temp\VMBCore\arduino16x\1ff78a0346523d7d91af874899f893a8\variant\syscalls.c.o
LOAD C:\Users\Данила Кондрашов\AppData\Local\Temp\VMBuilds\LAB8_NEW\stm32duino_genericSTM32F103C6\Release\core.a
END GROUP
LOAD c:/users/данила кондрашов/appdata/local/arduino15/packages/arduino/tools/arm-none-eabi-gcc/4.8.3-2014q1/bin/../lib/gcc/arm-none-eabi/4.8.3/../../../../arm-none-eabi/lib/armv7-m\libstdc++_s.a
LOAD c:/users/данила кондрашов/appdata/local/arduino15/packages/arduino/tools/arm-none-eabi-gcc/4.8.3-2014q1/bin/../lib/gcc/arm-none-eabi/4.8.3/../../../../arm-none-eabi/lib/armv7-m\libm.a
START GROUP
LOAD c:/users/данила кондрашов/appdata/local/arduino15/packages/arduino/tools/arm-none-eabi-gcc/4.8.3-2014q1/bin/../lib/gcc/arm-none-eabi/4.8.3/armv7-m\libgcc.a
LOAD c:/users/данила кондрашов/appdata/local/arduino15/packages/arduino/tools/arm-none-eabi-gcc/4.8.3-2014q1/bin/../lib/gcc/arm-none-eabi/4.8.3/../../../../arm-none-eabi/lib/armv7-m\libc_s.a
END GROUP
START GROUP
LOAD c:/users/данила кондрашов/appdata/local/arduino15/packages/arduino/tools/arm-none-eabi-gcc/4.8.3-2014q1/bin/../lib/gcc/arm-none-eabi/4.8.3/armv7-m\libgcc.a
LOAD c:/users/данила кондрашов/appdata/local/arduino15/packages/arduino/tools/arm-none-eabi-gcc/4.8.3-2014q1/bin/../lib/gcc/arm-none-eabi/4.8.3/../../../../arm-none-eabi/lib/armv7-m\libc_s.a
END GROUP
LOAD c:/users/данила кондрашов/appdata/local/arduino15/packages/arduino/tools/arm-none-eabi-gcc/4.8.3-2014q1/bin/../lib/gcc/arm-none-eabi/4.8.3/armv7-m/crtend.o
LOAD c:/users/данила кондрашов/appdata/local/arduino15/packages/arduino/tools/arm-none-eabi-gcc/4.8.3-2014q1/bin/../lib/gcc/arm-none-eabi/4.8.3/armv7-m/crtn.o
START GROUP
LOAD c:/users/данила кондрашов/appdata/local/arduino15/packages/arduino/tools/arm-none-eabi-gcc/4.8.3-2014q1/bin/../lib/gcc/arm-none-eabi/4.8.3/armv7-m\libgcc.a
LOAD c:/users/данила кондрашов/appdata/local/arduino15/packages/arduino/tools/arm-none-eabi-gcc/4.8.3-2014q1/bin/../lib/gcc/arm-none-eabi/4.8.3/../../../../arm-none-eabi/lib/armv7-m\libc.a
LOAD c:/users/данила кондрашов/appdata/local/arduino15/packages/arduino/tools/arm-none-eabi-gcc/4.8.3-2014q1/bin/../lib/gcc/arm-none-eabi/4.8.3/../../../../arm-none-eabi/lib/armv7-m\libm.a
END GROUP
START GROUP
LOAD c:/users/данила кондрашов/appdata/local/arduino15/packages/arduino/tools/arm-none-eabi-gcc/4.8.3-2014q1/bin/../lib/gcc/arm-none-eabi/4.8.3/../../../../arm-none-eabi/lib/armv7-m\libnosys.a
END GROUP
                0x20002800                PROVIDE (__msp_init, (ORIGIN (ram) + 0x2800))
                0x080007f4                PROVIDE (__exc_reset, __start__)

.text           0x08000000     0x4b80
                0x08000000                __text_start__ = .
 *(.stm32.interrupt_vector)
 .stm32.interrupt_vector
                0x08000000       0xec C:\Users\Данила Кондрашов\AppData\Local\Temp\VMBuilds\LAB8_NEW\stm32duino_genericSTM32F103C6\Release\core.a(vector_table.S.o)
                0x08000000                __stm32_vector_table
 *(.text .text.* .gnu.linkonce.t.*)
 .text          0x080000ec       0x54 c:/users/данила кондрашов/appdata/local/arduino15/packages/arduino/tools/arm-none-eabi-gcc/4.8.3-2014q1/bin/../lib/gcc/arm-none-eabi/4.8.3/armv7-m/crtbegin.o
 .text._Z5setupv
                0x08000140       0x9c LAB8_NEW.cpp.o
                0x08000140                setup()
 .text._Z4loopv
                0x080001dc      0x1a8 LAB8_NEW.cpp.o
                0x080001dc                loop()
 .text.startup._GLOBAL__sub_I_lm75a
                0x08000384        0xc LAB8_NEW.cpp.o
 .text._ZN9M2M_LM75AC2Ev
                0x08000390        0x6 LM75A_Arduino_library\M2M_LM75A.cpp.o
                0x08000390                M2M_LM75A::M2M_LM75A()
                0x08000390                M2M_LM75A::M2M_LM75A()
 *fill*         0x08000396        0x2 
 .text._ZN9M2M_LM75A17read16bitRegisterEhRt
                0x08000398       0x50 LM75A_Arduino_library\M2M_LM75A.cpp.o
                0x08000398                M2M_LM75A::read16bitRegister(unsigned char, unsigned short&)
 .text._ZN9M2M_LM75A14getTemperatureEv
                0x080003e8       0x2c LM75A_Arduino_library\M2M_LM75A.cpp.o
                0x080003e8                M2M_LM75A::getTemperature()
 .text._ZN9M2M_LM75A5beginEv
                0x08000414        0xc LM75A_Arduino_library\M2M_LM75A.cpp.o
                0x08000414                M2M_LM75A::begin()
 .text._ZN7TwoWire7processEv
                0x08000420        0xc Wire\Wire.cpp.o
                0x08000420                TwoWire::process()
 .text._ZN7TwoWire5beginEh
                0x0800042c        0xe Wire\Wire.cpp.o
                0x0800042c                TwoWire::begin(unsigned char)
 .text.i2c_disable
                0x0800043a       0x1a Wire\Wire.cpp.o
 .text._ZN7TwoWire3endEv
                0x08000454       0x10 Wire\Wire.cpp.o
                0x08000454                TwoWire::end()
 .text._ZN7TwoWire7processEh
                0x08000464       0x4a Wire\Wire.cpp.o
                0x08000464                TwoWire::process(unsigned char)
 *fill*         0x080004ae        0x2 
 .text._ZN7TwoWireD2Ev
                0x080004b0       0x24 Wire\Wire.cpp.o
                0x080004b0                TwoWire::~TwoWire()
                0x080004b0                TwoWire::~TwoWire()
 .text.startup._GLOBAL__sub_I__ZN7TwoWire7processEh
                0x080004d4       0x28 Wire\Wire.cpp.o
 .text.exit._GLOBAL__sub_D__ZN7TwoWire7processEh
                0x080004fc        0xc Wire\Wire.cpp.o
 .text._ZN8WireBase3endEv
                0x08000508        0x2 Wire\utility\WireBase.cpp.o
                0x08000508                WireBase::end()
 .text._ZN8WireBase5beginEh
                0x0800050a       0x14 Wire\utility\WireBase.cpp.o
                0x0800050a                WireBase::begin(unsigned char)
 .text._ZN8WireBase17beginTransmissionEh
                0x0800051e       0x14 Wire\utility\WireBase.cpp.o
                0x0800051e                WireBase::beginTransmission(unsigned char)
 .text._ZN8WireBase15endTransmissionEb
                0x08000532       0x1e Wire\utility\WireBase.cpp.o
                0x08000532                WireBase::endTransmission(bool)
 .text._ZN8WireBase15endTransmissionEv
                0x08000550        0x6 Wire\utility\WireBase.cpp.o
                0x08000550                WireBase::endTransmission()
 .text._ZN8WireBase11requestFromEhib
                0x08000556       0x38 Wire\utility\WireBase.cpp.o
                0x08000556                WireBase::requestFrom(unsigned char, int, bool)
 .text._ZN8WireBase5writeEh
                0x0800058e       0x28 Wire\utility\WireBase.cpp.o
                0x0800058e                WireBase::write(unsigned char)
 .text._ZN8WireBase4readEv
                0x080005b6       0x3e Wire\utility\WireBase.cpp.o
                0x080005b6                WireBase::read()
 .text._Z9boardInitv
                0x080005f4        0x2 C:\Users\Данила Кондрашов\AppData\Local\Temp\VMBCore\arduino16x\1ff78a0346523d7d91af874899f893a8\variant\board.cpp.o
                0x080005f4                boardInit()
 *fill*         0x080005f6        0x2 
 .text.startup._GLOBAL__sub_I__Z9boardInitv
                0x080005f8       0x48 C:\Users\Данила Кондрашов\AppData\Local\Temp\VMBCore\arduino16x\1ff78a0346523d7d91af874899f893a8\variant\board.cpp.o
 .text._ZL18adc_default_configP7adc_dev
                0x08000640       0x1c C:\Users\Данила Кондрашов\AppData\Local\Temp\VMBCore\arduino16x\1ff78a0346523d7d91af874899f893a8\variant\wirish\boards.cpp.o
 .text._ZL20timer_default_configP9timer_dev
                0x0800065c       0x9e C:\Users\Данила Кондрашов\AppData\Local\Temp\VMBCore\arduino16x\1ff78a0346523d7d91af874899f893a8\variant\wirish\boards.cpp.o
 *fill*         0x080006fa        0x2 
 .text._Z4initv
                0x080006fc       0xbc C:\Users\Данила Кондрашов\AppData\Local\Temp\VMBCore\arduino16x\1ff78a0346523d7d91af874899f893a8\variant\wirish\boards.cpp.o
                0x080006fc                init()
 .text._ZN6wirish4priv15board_reset_pllEv
                0x080007b8        0x2 C:\Users\Данила Кондрашов\AppData\Local\Temp\VMBCore\arduino16x\1ff78a0346523d7d91af874899f893a8\variant\wirish\boards_setup.cpp.o
                0x080007b8                wirish::priv::board_reset_pll()
 .text._ZN6wirish4priv28board_setup_clock_prescalersEv
                0x080007ba       0x2e C:\Users\Данила Кондрашов\AppData\Local\Temp\VMBCore\arduino16x\1ff78a0346523d7d91af874899f893a8\variant\wirish\boards_setup.cpp.o
                0x080007ba                wirish::priv::board_setup_clock_prescalers()
 .text._ZN6wirish4priv16board_setup_gpioEv
                0x080007e8        0x4 C:\Users\Данила Кондрашов\AppData\Local\Temp\VMBCore\arduino16x\1ff78a0346523d7d91af874899f893a8\variant\wirish\boards_setup.cpp.o
                0x080007e8                wirish::priv::board_setup_gpio()
 .text._ZN6wirish4priv15board_setup_usbEv
                0x080007ec        0x2 C:\Users\Данила Кондрашов\AppData\Local\Temp\VMBCore\arduino16x\1ff78a0346523d7d91af874899f893a8\variant\wirish\boards_setup.cpp.o
                0x080007ec                wirish::priv::board_setup_usb()
 .text._ZN6wirish4priv11series_initEv
                0x080007ee        0x4 C:\Users\Данила Кондрашов\AppData\Local\Temp\VMBCore\arduino16x\1ff78a0346523d7d91af874899f893a8\variant\wirish\boards_setup.cpp.o
                0x080007ee                wirish::priv::series_init()
 *fill*         0x080007f2        0x2 
 .text          0x080007f4       0x10 C:\Users\Данила Кондрашов\AppData\Local\Temp\VMBCore\arduino16x\1ff78a0346523d7d91af874899f893a8\variant\start.S.o
                0x080007f4                __start__
 .text.start_c  0x08000804       0x58 C:\Users\Данила Кондрашов\AppData\Local\Temp\VMBCore\arduino16x\1ff78a0346523d7d91af874899f893a8\variant\start_c.c.o
                0x08000804                start_c
 *fill*         0x0800085c        0x4 
 .text          0x08000860       0x60 C:\Users\Данила Кондрашов\AppData\Local\Temp\VMBuilds\LAB8_NEW\stm32duino_genericSTM32F103C6\Release\core.a(exc.S.o)
                0x08000860                __exc_nmi
                0x08000864                __exc_hardfault
                0x08000868                __exc_memmanage
                0x0800086c                __exc_busfault
                0x08000870                __exc_usagefault
 .text          0x080008c0        0x2 C:\Users\Данила Кондрашов\AppData\Local\Temp\VMBuilds\LAB8_NEW\stm32duino_genericSTM32F103C6\Release\core.a(isrs.S.o)
                0x080008c0                __stm32reservedexception9
                0x080008c0                __exc_debug_monitor
                0x080008c0                __exc_svc
                0x080008c0                __irq_can_rx1
                0x080008c0                __irq_spi2
                0x080008c0                __irq_can_sce
                0x080008c0                __irq_pvd
                0x080008c0                __irq_tamper
                0x080008c0                __default_handler
                0x080008c0                __irq_wwdg
                0x080008c0                __stm32reservedexception10
                0x080008c0                __irq_flash
                0x080008c0                __stm32reservedexception13
                0x080008c0                __irq_rtc
                0x080008c0                __irq_spi1
                0x080008c0                __stm32reservedexception7
                0x080008c0                __irq_usb_hp_can_tx
                0x080008c0                __irq_rtcalarm
                0x080008c0                __stm32reservedexception8
                0x080008c0                __exc_pendsv
                0x080008c0                __irq_usbwakeup
                0x080008c0                __irq_rcc
 .text.adc_init
                0x080008c2       0x14 C:\Users\Данила Кондрашов\AppData\Local\Temp\VMBuilds\LAB8_NEW\stm32duino_genericSTM32F103C6\Release\core.a(adc.c.o)
                0x080008c2                adc_init
 .text.adc_set_extsel
                0x080008d6       0x12 C:\Users\Данила Кондрашов\AppData\Local\Temp\VMBuilds\LAB8_NEW\stm32duino_genericSTM32F103C6\Release\core.a(adc.c.o)
                0x080008d6                adc_set_extsel
 .text.adc_set_sample_rate
                0x080008e8       0x30 C:\Users\Данила Кондрашов\AppData\Local\Temp\VMBuilds\LAB8_NEW\stm32duino_genericSTM32F103C6\Release\core.a(adc.c.o)
                0x080008e8                adc_set_sample_rate
 .text.__irq_adc
                0x08000918       0x50 C:\Users\Данила Кондрашов\AppData\Local\Temp\VMBuilds\LAB8_NEW\stm32duino_genericSTM32F103C6\Release\core.a(adc_f1.c.o)
                0x08000918                __irq_adc
 .text.adc_calibrate
                0x08000968       0x24 C:\Users\Данила Кондрашов\AppData\Local\Temp\VMBuilds\LAB8_NEW\stm32duino_genericSTM32F103C6\Release\core.a(adc_f1.c.o)
                0x08000968                adc_calibrate
 .text.adc_set_prescaler
                0x0800098c        0x8 C:\Users\Данила Кондрашов\AppData\Local\Temp\VMBuilds\LAB8_NEW\stm32duino_genericSTM32F103C6\Release\core.a(adc_f1.c.o)
                0x0800098c                adc_set_prescaler
 .text.adc_foreach
                0x08000994       0x1c C:\Users\Данила Кондрашов\AppData\Local\Temp\VMBuilds\LAB8_NEW\stm32duino_genericSTM32F103C6\Release\core.a(adc_f1.c.o)
                0x08000994                adc_foreach
 .text.adc_enable_single_swstart
                0x080009b0       0x36 C:\Users\Данила Кондрашов\AppData\Local\Temp\VMBuilds\LAB8_NEW\stm32duino_genericSTM32F103C6\Release\core.a(adc_f1.c.o)
                0x080009b0                adc_enable_single_swstart
 .text.dma_irq_handler
                0x080009e6       0x1c C:\Users\Данила Кондрашов\AppData\Local\Temp\VMBuilds\LAB8_NEW\stm32duino_genericSTM32F103C6\Release\core.a(dma_f1.c.o)
 *fill*         0x08000a02        0x2 
 .text.__irq_dma1_channel1
                0x08000a04       0x10 C:\Users\Данила Кондрашов\AppData\Local\Temp\VMBuilds\LAB8_NEW\stm32duino_genericSTM32F103C6\Release\core.a(dma_f1.c.o)
                0x08000a04                __irq_dma1_channel1
 .text.__irq_dma1_channel2
                0x08000a14       0x10 C:\Users\Данила Кондрашов\AppData\Local\Temp\VMBuilds\LAB8_NEW\stm32duino_genericSTM32F103C6\Release\core.a(dma_f1.c.o)
                0x08000a14                __irq_dma1_channel2
 .text.__irq_dma1_channel3
                0x08000a24       0x10 C:\Users\Данила Кондрашов\AppData\Local\Temp\VMBuilds\LAB8_NEW\stm32duino_genericSTM32F103C6\Release\core.a(dma_f1.c.o)
                0x08000a24                __irq_dma1_channel3
 .text.__irq_dma1_channel4
                0x08000a34       0x10 C:\Users\Данила Кондрашов\AppData\Local\Temp\VMBuilds\LAB8_NEW\stm32duino_genericSTM32F103C6\Release\core.a(dma_f1.c.o)
                0x08000a34                __irq_dma1_channel4
 .text.__irq_dma1_channel5
                0x08000a44       0x10 C:\Users\Данила Кондрашов\AppData\Local\Temp\VMBuilds\LAB8_NEW\stm32duino_genericSTM32F103C6\Release\core.a(dma_f1.c.o)
                0x08000a44                __irq_dma1_channel5
 .text.__irq_dma1_channel6
                0x08000a54       0x10 C:\Users\Данила Кондрашов\AppData\Local\Temp\VMBuilds\LAB8_NEW\stm32duino_genericSTM32F103C6\Release\core.a(dma_f1.c.o)
                0x08000a54                __irq_dma1_channel6
 .text.__irq_dma1_channel7
                0x08000a64       0x10 C:\Users\Данила Кондрашов\AppData\Local\Temp\VMBuilds\LAB8_NEW\stm32duino_genericSTM32F103C6\Release\core.a(dma_f1.c.o)
                0x08000a64                __irq_dma1_channel7
 .text.dispatch_single_exti
                0x08000a74       0x2c C:\Users\Данила Кондрашов\AppData\Local\Temp\VMBuilds\LAB8_NEW\stm32duino_genericSTM32F103C6\Release\core.a(exti.c.o)
                0x08000a74                dispatch_single_exti
 .text.dispatch_extis
                0x08000aa0       0x4c C:\Users\Данила Кондрашов\AppData\Local\Temp\VMBuilds\LAB8_NEW\stm32duino_genericSTM32F103C6\Release\core.a(exti.c.o)
                0x08000aa0                dispatch_extis
 .text.__irq_exti0
                0x08000aec        0x6 C:\Users\Данила Кондрашов\AppData\Local\Temp\VMBuilds\LAB8_NEW\stm32duino_genericSTM32F103C6\Release\core.a(exti.c.o)
                0x08000aec                __irq_exti0
 .text.__irq_exti1
                0x08000af2        0x6 C:\Users\Данила Кондрашов\AppData\Local\Temp\VMBuilds\LAB8_NEW\stm32duino_genericSTM32F103C6\Release\core.a(exti.c.o)
                0x08000af2                __irq_exti1
 .text.__irq_exti2
                0x08000af8        0x6 C:\Users\Данила Кондрашов\AppData\Local\Temp\VMBuilds\LAB8_NEW\stm32duino_genericSTM32F103C6\Release\core.a(exti.c.o)
                0x08000af8                __irq_exti2
 .text.__irq_exti3
                0x08000afe        0x6 C:\Users\Данила Кондрашов\AppData\Local\Temp\VMBuilds\LAB8_NEW\stm32duino_genericSTM32F103C6\Release\core.a(exti.c.o)
                0x08000afe                __irq_exti3
 .text.__irq_exti4
                0x08000b04        0x6 C:\Users\Данила Кондрашов\AppData\Local\Temp\VMBuilds\LAB8_NEW\stm32duino_genericSTM32F103C6\Release\core.a(exti.c.o)
                0x08000b04                __irq_exti4
 .text.__irq_exti9_5
                0x08000b0a        0x8 C:\Users\Данила Кондрашов\AppData\Local\Temp\VMBuilds\LAB8_NEW\stm32duino_genericSTM32F103C6\Release\core.a(exti.c.o)
                0x08000b0a                __irq_exti9_5
 .text.__irq_exti15_10
                0x08000b12        0x8 C:\Users\Данила Кондрашов\AppData\Local\Temp\VMBuilds\LAB8_NEW\stm32duino_genericSTM32F103C6\Release\core.a(exti.c.o)
                0x08000b12                __irq_exti15_10
 *fill*         0x08000b1a        0x2 
 .text.flash_set_latency
                0x08000b1c       0x14 C:\Users\Данила Кондрашов\AppData\Local\Temp\VMBuilds\LAB8_NEW\stm32duino_genericSTM32F103C6\Release\core.a(flash.c.o)
                0x08000b1c                flash_set_latency
 .text.gpio_init_all
                0x08000b30       0x30 C:\Users\Данила Кондрашов\AppData\Local\Temp\VMBuilds\LAB8_NEW\stm32duino_genericSTM32F103C6\Release\core.a(gpio_f1.c.o)
                0x08000b30                gpio_init_all
 .text.gpio_set_mode
                0x08000b60       0x50 C:\Users\Данила Кондрашов\AppData\Local\Temp\VMBuilds\LAB8_NEW\stm32duino_genericSTM32F103C6\Release\core.a(gpio_f1.c.o)
                0x08000b60                gpio_set_mode
 .text.afio_init
                0x08000bb0       0x12 C:\Users\Данила Кондрашов\AppData\Local\Temp\VMBuilds\LAB8_NEW\stm32duino_genericSTM32F103C6\Release\core.a(gpio_f1.c.o)
                0x08000bb0                afio_init
 *fill*         0x08000bc2        0x2 
 .text.afio_remap
                0x08000bc4       0x20 C:\Users\Данила Кондрашов\AppData\Local\Temp\VMBuilds\LAB8_NEW\stm32duino_genericSTM32F103C6\Release\core.a(gpio_f1.c.o)
                0x08000bc4                afio_remap
 .text.nvic_irq_enable
                0x08000be4       0x1c C:\Users\Данила Кондрашов\AppData\Local\Temp\VMBuilds\LAB8_NEW\stm32duino_genericSTM32F103C6\Release\core.a(i2c.c.o)
 .text.i2c_disable_irq
                0x08000c00        0xc C:\Users\Данила Кондрашов\AppData\Local\Temp\VMBuilds\LAB8_NEW\stm32duino_genericSTM32F103C6\Release\core.a(i2c.c.o)
 .text.delay_us.part.0.constprop.6
                0x08000c0c        0xa C:\Users\Данила Кондрашов\AppData\Local\Temp\VMBuilds\LAB8_NEW\stm32duino_genericSTM32F103C6\Release\core.a(i2c.c.o)
 .text.i2c_bus_reset
                0x08000c16       0xc2 C:\Users\Данила Кондрашов\AppData\Local\Temp\VMBuilds\LAB8_NEW\stm32duino_genericSTM32F103C6\Release\core.a(i2c.c.o)
                0x08000c16                i2c_bus_reset
 .text.i2c_init
                0x08000cd8       0x1e C:\Users\Данила Кондрашов\AppData\Local\Temp\VMBuilds\LAB8_NEW\stm32duino_genericSTM32F103C6\Release\core.a(i2c.c.o)
                0x08000cd8                i2c_init
 *fill*         0x08000cf6        0x2 
 .text.wait_for_state_change
                0x08000cf8       0x98 C:\Users\Данила Кондрашов\AppData\Local\Temp\VMBuilds\LAB8_NEW\stm32duino_genericSTM32F103C6\Release\core.a(i2c.c.o)
                0x08000cf8                wait_for_state_change
 .text.i2c_master_xfer
                0x08000d90       0xcc C:\Users\Данила Кондрашов\AppData\Local\Temp\VMBuilds\LAB8_NEW\stm32duino_genericSTM32F103C6\Release\core.a(i2c.c.o)
                0x08000d90                i2c_master_xfer
 .text._i2c_irq_handler
                0x08000e5c      0x3d8 C:\Users\Данила Кондрашов\AppData\Local\Temp\VMBuilds\LAB8_NEW\stm32duino_genericSTM32F103C6\Release\core.a(i2c.c.o)
                0x08000e5c                _i2c_irq_handler
 .text._i2c_irq_error_handler
                0x08001234       0x74 C:\Users\Данила Кондрашов\AppData\Local\Temp\VMBuilds\LAB8_NEW\stm32duino_genericSTM32F103C6\Release\core.a(i2c.c.o)
                0x08001234                _i2c_irq_error_handler
 .text.i2c_set_ccr_trise
                0x080012a8       0x54 C:\Users\Данила Кондрашов\AppData\Local\Temp\VMBuilds\LAB8_NEW\stm32duino_genericSTM32F103C6\Release\core.a(i2c.c.o)
                0x080012a8                i2c_set_ccr_trise
 .text.i2c_master_enable
                0x080012fc      0x1b4 C:\Users\Данила Кондрашов\AppData\Local\Temp\VMBuilds\LAB8_NEW\stm32duino_genericSTM32F103C6\Release\core.a(i2c.c.o)
                0x080012fc                i2c_master_enable
 .text.i2c_config_gpios
                0x080014b0       0x58 C:\Users\Данила Кондрашов\AppData\Local\Temp\VMBuilds\LAB8_NEW\stm32duino_genericSTM32F103C6\Release\core.a(i2c_f1.c.o)
                0x080014b0                i2c_config_gpios
 .text.i2c_master_release_bus
                0x08001508       0x4c C:\Users\Данила Кондрашов\AppData\Local\Temp\VMBuilds\LAB8_NEW\stm32duino_genericSTM32F103C6\Release\core.a(i2c_f1.c.o)
                0x08001508                i2c_master_release_bus
 .text.__irq_i2c1_ev
                0x08001554        0xc C:\Users\Данила Кондрашов\AppData\Local\Temp\VMBuilds\LAB8_NEW\stm32duino_genericSTM32F103C6\Release\core.a(i2c_f1.c.o)
                0x08001554                __irq_i2c1_ev
 .text.__irq_i2c2_ev
                0x08001560        0xc C:\Users\Данила Кондрашов\AppData\Local\Temp\VMBuilds\LAB8_NEW\stm32duino_genericSTM32F103C6\Release\core.a(i2c_f1.c.o)
                0x08001560                __irq_i2c2_ev
 .text.__irq_i2c1_er
                0x0800156c        0xc C:\Users\Данила Кондрашов\AppData\Local\Temp\VMBuilds\LAB8_NEW\stm32duino_genericSTM32F103C6\Release\core.a(i2c_f1.c.o)
                0x0800156c                __irq_i2c1_er
 .text.__irq_i2c2_er
                0x08001578        0xc C:\Users\Данила Кондрашов\AppData\Local\Temp\VMBuilds\LAB8_NEW\stm32duino_genericSTM32F103C6\Release\core.a(i2c_f1.c.o)
                0x08001578                __irq_i2c2_er
 .text._i2c_irq_priority_fixup
                0x08001584        0xa C:\Users\Данила Кондрашов\AppData\Local\Temp\VMBuilds\LAB8_NEW\stm32duino_genericSTM32F103C6\Release\core.a(i2c_f1.c.o)
                0x08001584                _i2c_irq_priority_fixup
 *fill*         0x0800158e        0x2 
 .text.nvic_irq_set_priority
                0x08001590       0x28 C:\Users\Данила Кондрашов\AppData\Local\Temp\VMBuilds\LAB8_NEW\stm32duino_genericSTM32F103C6\Release\core.a(nvic.c.o)
                0x08001590                nvic_irq_set_priority
 .text.nvic_init
                0x080015b8       0x30 C:\Users\Данила Кондрашов\AppData\Local\Temp\VMBuilds\LAB8_NEW\stm32duino_genericSTM32F103C6\Release\core.a(nvic.c.o)
                0x080015b8                nvic_init
 .text.rcc_dev_clk
                0x080015e8        0xc C:\Users\Данила Кондрашов\AppData\Local\Temp\VMBuilds\LAB8_NEW\stm32duino_genericSTM32F103C6\Release\core.a(rcc.c.o)
                0x080015e8                rcc_dev_clk
 .text.rcc_switch_sysclk
                0x080015f4       0x20 C:\Users\Данила Кондрашов\AppData\Local\Temp\VMBuilds\LAB8_NEW\stm32duino_genericSTM32F103C6\Release\core.a(rcc.c.o)
                0x080015f4                rcc_switch_sysclk
 .text.rcc_turn_on_clk
                0x08001614       0x1a C:\Users\Данила Кондрашов\AppData\Local\Temp\VMBuilds\LAB8_NEW\stm32duino_genericSTM32F103C6\Release\core.a(rcc.c.o)
                0x08001614                rcc_turn_on_clk
 .text.rcc_turn_off_clk
                0x0800162e       0x1c C:\Users\Данила Кондрашов\AppData\Local\Temp\VMBuilds\LAB8_NEW\stm32duino_genericSTM32F103C6\Release\core.a(rcc.c.o)
                0x0800162e                rcc_turn_off_clk
 .text.rcc_is_clk_ready
                0x0800164a       0x18 C:\Users\Данила Кондрашов\AppData\Local\Temp\VMBuilds\LAB8_NEW\stm32duino_genericSTM32F103C6\Release\core.a(rcc.c.o)
                0x0800164a                rcc_is_clk_ready
 *fill*         0x08001662        0x2 
 .text.rcc_configure_pll
                0x08001664       0x18 C:\Users\Данила Кондрашов\AppData\Local\Temp\VMBuilds\LAB8_NEW\stm32duino_genericSTM32F103C6\Release\core.a(rcc_f1.c.o)
                0x08001664                rcc_configure_pll
 .text.rcc_clk_enable
                0x0800167c       0x30 C:\Users\Данила Кондрашов\AppData\Local\Temp\VMBuilds\LAB8_NEW\stm32duino_genericSTM32F103C6\Release\core.a(rcc_f1.c.o)
                0x0800167c                rcc_clk_enable
 .text.rcc_reset_dev
                0x080016ac       0x34 C:\Users\Данила Кондрашов\AppData\Local\Temp\VMBuilds\LAB8_NEW\stm32duino_genericSTM32F103C6\Release\core.a(rcc_f1.c.o)
                0x080016ac                rcc_reset_dev
 .text.rcc_set_prescaler
                0x080016e0       0x20 C:\Users\Данила Кондрашов\AppData\Local\Temp\VMBuilds\LAB8_NEW\stm32duino_genericSTM32F103C6\Release\core.a(rcc_f1.c.o)
                0x080016e0                rcc_set_prescaler
 .text.rcc_clk_disable
                0x08001700       0x30 C:\Users\Данила Кондрашов\AppData\Local\Temp\VMBuilds\LAB8_NEW\stm32duino_genericSTM32F103C6\Release\core.a(rcc_f1.c.o)
                0x08001700                rcc_clk_disable
 .text.systick_init
                0x08001730       0x10 C:\Users\Данила Кондрашов\AppData\Local\Temp\VMBuilds\LAB8_NEW\stm32duino_genericSTM32F103C6\Release\core.a(systick.c.o)
                0x08001730                systick_init
 .text.__exc_systick
                0x08001740       0x1c C:\Users\Данила Кондрашов\AppData\Local\Temp\VMBuilds\LAB8_NEW\stm32duino_genericSTM32F103C6\Release\core.a(systick.c.o)
                0x08001740                __exc_systick
 .text.timer_oc_set_mode
                0x0800175c       0x3a C:\Users\Данила Кондрашов\AppData\Local\Temp\VMBuilds\LAB8_NEW\stm32duino_genericSTM32F103C6\Release\core.a(timer.c.o)
 .text.dispatch_general
                0x08001796       0x66 C:\Users\Данила Кондрашов\AppData\Local\Temp\VMBuilds\LAB8_NEW\stm32duino_genericSTM32F103C6\Release\core.a(timer.c.o)
 .text.timer_cc_enable
                0x080017fc       0x1c C:\Users\Данила Кондрашов\AppData\Local\Temp\VMBuilds\LAB8_NEW\stm32duino_genericSTM32F103C6\Release\core.a(timer.c.o)
 .text.timer_foreach
                0x08001818       0x28 C:\Users\Данила Кондрашов\AppData\Local\Temp\VMBuilds\LAB8_NEW\stm32duino_genericSTM32F103C6\Release\core.a(timer.c.o)
                0x08001818                timer_foreach
 .text.timer_init
                0x08001840       0x14 C:\Users\Данила Кондрашов\AppData\Local\Temp\VMBuilds\LAB8_NEW\stm32duino_genericSTM32F103C6\Release\core.a(timer.c.o)
                0x08001840                timer_init
 .text.timer_has_cc_channel
                0x08001854       0x30 C:\Users\Данила Кондрашов\AppData\Local\Temp\VMBuilds\LAB8_NEW\stm32duino_genericSTM32F103C6\Release\core.a(timer.c.o)
                0x08001854                timer_has_cc_channel
 .text.timer_attach_interrupt
                0x08001884       0xe0 C:\Users\Данила Кондрашов\AppData\Local\Temp\VMBuilds\LAB8_NEW\stm32duino_genericSTM32F103C6\Release\core.a(timer.c.o)
                0x08001884                timer_attach_interrupt
 .text.timer_detach_interrupt
                0x08001964       0x1e C:\Users\Данила Кондрашов\AppData\Local\Temp\VMBuilds\LAB8_NEW\stm32duino_genericSTM32F103C6\Release\core.a(timer.c.o)
                0x08001964                timer_detach_interrupt
 .text.input_capture_mode
                0x08001982       0x1a C:\Users\Данила Кондрашов\AppData\Local\Temp\VMBuilds\LAB8_NEW\stm32duino_genericSTM32F103C6\Release\core.a(timer.c.o)
                0x08001982                input_capture_mode
 .text.timer_set_mode
                0x0800199c       0x8c C:\Users\Данила Кондрашов\AppData\Local\Temp\VMBuilds\LAB8_NEW\stm32duino_genericSTM32F103C6\Release\core.a(timer.c.o)
                0x0800199c                timer_set_mode
 .text.__irq_tim1_brk
                0x08001a28       0x24 C:\Users\Данила Кондрашов\AppData\Local\Temp\VMBuilds\LAB8_NEW\stm32duino_genericSTM32F103C6\Release\core.a(timer.c.o)
                0x08001a28                __irq_tim1_brk
 .text.__irq_tim1_up
                0x08001a4c       0x24 C:\Users\Данила Кондрашов\AppData\Local\Temp\VMBuilds\LAB8_NEW\stm32duino_genericSTM32F103C6\Release\core.a(timer.c.o)
                0x08001a4c                __irq_tim1_up
 .text.__irq_tim1_trg_com
                0x08001a70       0x34 C:\Users\Данила Кондрашов\AppData\Local\Temp\VMBuilds\LAB8_NEW\stm32duino_genericSTM32F103C6\Release\core.a(timer.c.o)
                0x08001a70                __irq_tim1_trg_com
 .text.__irq_tim1_cc
                0x08001aa4       0x50 C:\Users\Данила Кондрашов\AppData\Local\Temp\VMBuilds\LAB8_NEW\stm32duino_genericSTM32F103C6\Release\core.a(timer.c.o)
                0x08001aa4                __irq_tim1_cc
 .text.__irq_tim2
                0x08001af4        0xc C:\Users\Данила Кондрашов\AppData\Local\Temp\VMBuilds\LAB8_NEW\stm32duino_genericSTM32F103C6\Release\core.a(timer.c.o)
                0x08001af4                __irq_tim2
 .text.__irq_tim3
                0x08001b00        0xc C:\Users\Данила Кондрашов\AppData\Local\Temp\VMBuilds\LAB8_NEW\stm32duino_genericSTM32F103C6\Release\core.a(timer.c.o)
                0x08001b00                __irq_tim3
 .text.__irq_tim4
                0x08001b0c        0xc C:\Users\Данила Кондрашов\AppData\Local\Temp\VMBuilds\LAB8_NEW\stm32duino_genericSTM32F103C6\Release\core.a(timer.c.o)
                0x08001b0c                __irq_tim4
 .text.usart_irq
                0x08001b18       0xc8 C:\Users\Данила Кондрашов\AppData\Local\Temp\VMBuilds\LAB8_NEW\stm32duino_genericSTM32F103C6\Release\core.a(usart_f1.c.o)
 .text.usart_config_gpios_async
                0x08001be0       0x4a C:\Users\Данила Кондрашов\AppData\Local\Temp\VMBuilds\LAB8_NEW\stm32duino_genericSTM32F103C6\Release\core.a(usart_f1.c.o)
                0x08001be0                usart_config_gpios_async
 .text.usart_set_baud_rate
                0x08001c2a       0x3c C:\Users\Данила Кондрашов\AppData\Local\Temp\VMBuilds\LAB8_NEW\stm32duino_genericSTM32F103C6\Release\core.a(usart_f1.c.o)
                0x08001c2a                usart_set_baud_rate
 *fill*         0x08001c66        0x2 
 .text.__irq_usart1
                0x08001c68       0x18 C:\Users\Данила Кондрашов\AppData\Local\Temp\VMBuilds\LAB8_NEW\stm32duino_genericSTM32F103C6\Release\core.a(usart_f1.c.o)
                0x08001c68                __irq_usart1
 .text.__irq_usart2
                0x08001c80       0x18 C:\Users\Данила Кондрашов\AppData\Local\Temp\VMBuilds\LAB8_NEW\stm32duino_genericSTM32F103C6\Release\core.a(usart_f1.c.o)
                0x08001c80                __irq_usart2
 .text.__irq_usart3
                0x08001c98       0x18 C:\Users\Данила Кондрашов\AppData\Local\Temp\VMBuilds\LAB8_NEW\stm32duino_genericSTM32F103C6\Release\core.a(usart_f1.c.o)
                0x08001c98                __irq_usart3
 .text._usart_clock_freq
                0x08001cb0       0x24 C:\Users\Данила Кондрашов\AppData\Local\Temp\VMBuilds\LAB8_NEW\stm32duino_genericSTM32F103C6\Release\core.a(usart_private.c.o)
                0x08001cb0                _usart_clock_freq
 .text.throb    0x08001cd4       0x4c C:\Users\Данила Кондрашов\AppData\Local\Temp\VMBuilds\LAB8_NEW\stm32duino_genericSTM32F103C6\Release\core.a(util.c.o)
                0x08001cd4                throb
 .text.__error  0x08001d20       0x14 C:\Users\Данила Кондрашов\AppData\Local\Temp\VMBuilds\LAB8_NEW\stm32duino_genericSTM32F103C6\Release\core.a(util.c.o)
                0x08001d20                __error
 .text.usb_resume
                0x08001d34       0xb4 C:\Users\Данила Кондрашов\AppData\Local\Temp\VMBuilds\LAB8_NEW\stm32duino_genericSTM32F103C6\Release\core.a(usb.c.o)
 .text.__irq_usb_lp_can_rx0
                0x08001de8      0x1c8 C:\Users\Данила Кондрашов\AppData\Local\Temp\VMBuilds\LAB8_NEW\stm32duino_genericSTM32F103C6\Release\core.a(usb.c.o)
                0x08001de8                __irq_usb_lp_can_rx0
 .text.usb_set_ep_rx_stat
                0x08001fb0       0x22 C:\Users\Данила Кондрашов\AppData\Local\Temp\VMBuilds\LAB8_NEW\stm32duino_genericSTM32F103C6\Release\core.a(usb_cdcacm.c.o)
 *fill*         0x08001fd2        0x2 
 .text.vcomGetSetLineCoding
                0x08001fd4       0x18 C:\Users\Данила Кондрашов\AppData\Local\Temp\VMBuilds\LAB8_NEW\stm32duino_genericSTM32F103C6\Release\core.a(usb_cdcacm.c.o)
 .text.usbDataSetup
                0x08001fec       0x54 C:\Users\Данила Кондрашов\AppData\Local\Temp\VMBuilds\LAB8_NEW\stm32duino_genericSTM32F103C6\Release\core.a(usb_cdcacm.c.o)
 .text.usbNoDataSetup
                0x08002040       0x50 C:\Users\Данила Кондрашов\AppData\Local\Temp\VMBuilds\LAB8_NEW\stm32duino_genericSTM32F103C6\Release\core.a(usb_cdcacm.c.o)
 .text.usbGetInterfaceSetting
                0x08002090       0x10 C:\Users\Данила Кондрашов\AppData\Local\Temp\VMBuilds\LAB8_NEW\stm32duino_genericSTM32F103C6\Release\core.a(usb_cdcacm.c.o)
 .text.usbGetStringDescriptor
                0x080020a0       0x20 C:\Users\Данила Кондрашов\AppData\Local\Temp\VMBuilds\LAB8_NEW\stm32duino_genericSTM32F103C6\Release\core.a(usb_cdcacm.c.o)
 .text.usbGetConfigDescriptor
                0x080020c0        0xc C:\Users\Данила Кондрашов\AppData\Local\Temp\VMBuilds\LAB8_NEW\stm32duino_genericSTM32F103C6\Release\core.a(usb_cdcacm.c.o)
 .text.usbGetDeviceDescriptor
                0x080020cc        0xc C:\Users\Данила Кондрашов\AppData\Local\Temp\VMBuilds\LAB8_NEW\stm32duino_genericSTM32F103C6\Release\core.a(usb_cdcacm.c.o)
 .text.usbInit  0x080020d8       0x44 C:\Users\Данила Кондрашов\AppData\Local\Temp\VMBuilds\LAB8_NEW\stm32duino_genericSTM32F103C6\Release\core.a(usb_cdcacm.c.o)
 .text.usbReset
                0x0800211c      0x160 C:\Users\Данила Кондрашов\AppData\Local\Temp\VMBuilds\LAB8_NEW\stm32duino_genericSTM32F103C6\Release\core.a(usb_cdcacm.c.o)
 .text.usb_set_ep_rx_count
                0x0800227c       0x4c C:\Users\Данила Кондрашов\AppData\Local\Temp\VMBuilds\LAB8_NEW\stm32duino_genericSTM32F103C6\Release\core.a(usb_reg_map.c.o)
                0x0800227c                usb_set_ep_rx_count
 .text.Standard_GetConfiguration
                0x080022c8       0x24 C:\Users\Данила Кондрашов\AppData\Local\Temp\VMBuilds\LAB8_NEW\stm32duino_genericSTM32F103C6\Release\core.a(usb_core.c.o)
                0x080022c8                Standard_GetConfiguration
 .text.Standard_GetInterface
                0x080022ec       0x24 C:\Users\Данила Кондрашов\AppData\Local\Temp\VMBuilds\LAB8_NEW\stm32duino_genericSTM32F103C6\Release\core.a(usb_core.c.o)
                0x080022ec                Standard_GetInterface
 .text.Standard_GetStatus
                0x08002310       0x90 C:\Users\Данила Кондрашов\AppData\Local\Temp\VMBuilds\LAB8_NEW\stm32duino_genericSTM32F103C6\Release\core.a(usb_core.c.o)
                0x08002310                Standard_GetStatus
 .text.DataStageIn
                0x080023a0       0xa8 C:\Users\Данила Кондрашов\AppData\Local\Temp\VMBuilds\LAB8_NEW\stm32duino_genericSTM32F103C6\Release\core.a(usb_core.c.o)
 .text.Standard_SetConfiguration
                0x08002448       0x38 C:\Users\Данила Кондрашов\AppData\Local\Temp\VMBuilds\LAB8_NEW\stm32duino_genericSTM32F103C6\Release\core.a(usb_core.c.o)
                0x08002448                Standard_SetConfiguration
 .text.Standard_SetInterface
                0x08002480       0x48 C:\Users\Данила Кондрашов\AppData\Local\Temp\VMBuilds\LAB8_NEW\stm32duino_genericSTM32F103C6\Release\core.a(usb_core.c.o)
                0x08002480                Standard_SetInterface
 .text.Standard_ClearFeature
                0x080024c8       0xd0 C:\Users\Данила Кондрашов\AppData\Local\Temp\VMBuilds\LAB8_NEW\stm32duino_genericSTM32F103C6\Release\core.a(usb_core.c.o)
                0x080024c8                Standard_ClearFeature
 .text.Standard_SetEndPointFeature
                0x08002598       0x84 C:\Users\Данила Кондрашов\AppData\Local\Temp\VMBuilds\LAB8_NEW\stm32duino_genericSTM32F103C6\Release\core.a(usb_core.c.o)
                0x08002598                Standard_SetEndPointFeature
 .text.Standard_SetDeviceFeature
                0x0800261c       0x24 C:\Users\Данила Кондрашов\AppData\Local\Temp\VMBuilds\LAB8_NEW\stm32duino_genericSTM32F103C6\Release\core.a(usb_core.c.o)
                0x0800261c                Standard_SetDeviceFeature
 .text.Standard_GetDescriptorData
                0x08002640       0x1c C:\Users\Данила Кондрашов\AppData\Local\Temp\VMBuilds\LAB8_NEW\stm32duino_genericSTM32F103C6\Release\core.a(usb_core.c.o)
                0x08002640                Standard_GetDescriptorData
 .text.Post0_Process
                0x0800265c       0x40 C:\Users\Данила Кондрашов\AppData\Local\Temp\VMBuilds\LAB8_NEW\stm32duino_genericSTM32F103C6\Release\core.a(usb_core.c.o)
                0x0800265c                Post0_Process
 .text.Setup0_Process
                0x0800269c      0x2d0 C:\Users\Данила Кондрашов\AppData\Local\Temp\VMBuilds\LAB8_NEW\stm32duino_genericSTM32F103C6\Release\core.a(usb_core.c.o)
                0x0800269c                Setup0_Process
 .text.Out0_Process
                0x0800296c       0xc8 C:\Users\Данила Кондрашов\AppData\Local\Temp\VMBuilds\LAB8_NEW\stm32duino_genericSTM32F103C6\Release\core.a(usb_core.c.o)
                0x0800296c                Out0_Process
 .text.SetDeviceAddress
                0x08002a34       0x38 C:\Users\Данила Кондрашов\AppData\Local\Temp\VMBuilds\LAB8_NEW\stm32duino_genericSTM32F103C6\Release\core.a(usb_core.c.o)
                0x08002a34                SetDeviceAddress
 .text.In0_Process
                0x08002a6c       0x5c C:\Users\Данила Кондрашов\AppData\Local\Temp\VMBuilds\LAB8_NEW\stm32duino_genericSTM32F103C6\Release\core.a(usb_core.c.o)
                0x08002a6c                In0_Process
 .text.NOP_Process
                0x08002ac8        0x2 C:\Users\Данила Кондрашов\AppData\Local\Temp\VMBuilds\LAB8_NEW\stm32duino_genericSTM32F103C6\Release\core.a(usb_core.c.o)
                0x08002ac8                NOP_Process
 .text.UserToPMABufferCopy
                0x08002aca       0x30 C:\Users\Данила Кондрашов\AppData\Local\Temp\VMBuilds\LAB8_NEW\stm32duino_genericSTM32F103C6\Release\core.a(usb_mem.c.o)
                0x08002aca                UserToPMABufferCopy
 .text.PMAToUserBufferCopy
                0x08002afa       0x32 C:\Users\Данила Кондрашов\AppData\Local\Temp\VMBuilds\LAB8_NEW\stm32duino_genericSTM32F103C6\Release\core.a(usb_mem.c.o)
                0x08002afa                PMAToUserBufferCopy
 .text.SetEPTxStatus
                0x08002b2c       0x2a C:\Users\Данила Кондрашов\AppData\Local\Temp\VMBuilds\LAB8_NEW\stm32duino_genericSTM32F103C6\Release\core.a(usb_regs.c.o)
                0x08002b2c                SetEPTxStatus
 .text.ClearDTOG_RX
                0x08002b56       0x20 C:\Users\Данила Кондрашов\AppData\Local\Temp\VMBuilds\LAB8_NEW\stm32duino_genericSTM32F103C6\Release\core.a(usb_regs.c.o)
                0x08002b56                ClearDTOG_RX
 .text.ClearDTOG_TX
                0x08002b76       0x20 C:\Users\Данила Кондрашов\AppData\Local\Temp\VMBuilds\LAB8_NEW\stm32duino_genericSTM32F103C6\Release\core.a(usb_regs.c.o)
                0x08002b76                ClearDTOG_TX
 *fill*         0x08002b96        0x2 
 .text.GetEPTxAddr
                0x08002b98       0x1c C:\Users\Данила Кондрашов\AppData\Local\Temp\VMBuilds\LAB8_NEW\stm32duino_genericSTM32F103C6\Release\core.a(usb_regs.c.o)
                0x08002b98                GetEPTxAddr
 .text.GetEPRxAddr
                0x08002bb4       0x1c C:\Users\Данила Кондрашов\AppData\Local\Temp\VMBuilds\LAB8_NEW\stm32duino_genericSTM32F103C6\Release\core.a(usb_regs.c.o)
                0x08002bb4                GetEPRxAddr
 .text.SetEPTxCount
                0x08002bd0       0x1c C:\Users\Данила Кондрашов\AppData\Local\Temp\VMBuilds\LAB8_NEW\stm32duino_genericSTM32F103C6\Release\core.a(usb_regs.c.o)
                0x08002bd0                SetEPTxCount
 .text.SetEPRxCount
                0x08002bec       0x40 C:\Users\Данила Кондрашов\AppData\Local\Temp\VMBuilds\LAB8_NEW\stm32duino_genericSTM32F103C6\Release\core.a(usb_regs.c.o)
                0x08002bec                SetEPRxCount
 .text.__cxa_pure_virtual
                0x08002c2c        0x2 C:\Users\Данила Кондрашов\AppData\Local\Temp\VMBuilds\LAB8_NEW\stm32duino_genericSTM32F103C6\Release\core.a(cxxabi-compat.cpp.o)
                0x08002c2c                __cxa_pure_virtual
 .text.rb_full_count
                0x08002c2e       0x22 C:\Users\Данила Кондрашов\AppData\Local\Temp\VMBuilds\LAB8_NEW\stm32duino_genericSTM32F103C6\Release\core.a(HardwareSerial.cpp.o)
 .text._ZN14HardwareSerial4readEv
                0x08002c50       0x3a C:\Users\Данила Кондрашов\AppData\Local\Temp\VMBuilds\LAB8_NEW\stm32duino_genericSTM32F103C6\Release\core.a(HardwareSerial.cpp.o)
                0x08002c50                HardwareSerial::read()
 .text._ZN14HardwareSerial9availableEv
                0x08002c8a        0xc C:\Users\Данила Кондрашов\AppData\Local\Temp\VMBuilds\LAB8_NEW\stm32duino_genericSTM32F103C6\Release\core.a(HardwareSerial.cpp.o)
                0x08002c8a                HardwareSerial::available()
 .text._ZN14HardwareSerial4peekEv
                0x08002c96       0x22 C:\Users\Данила Кондрашов\AppData\Local\Temp\VMBuilds\LAB8_NEW\stm32duino_genericSTM32F103C6\Release\core.a(HardwareSerial.cpp.o)
                0x08002c96                HardwareSerial::peek()
 .text._ZN14HardwareSerial5flushEv
                0x08002cb8       0x1a C:\Users\Данила Кондрашов\AppData\Local\Temp\VMBuilds\LAB8_NEW\stm32duino_genericSTM32F103C6\Release\core.a(HardwareSerial.cpp.o)
                0x08002cb8                HardwareSerial::flush()
 .text._ZN14HardwareSerial5writeEh
                0x08002cd2       0x1e C:\Users\Данила Кондрашов\AppData\Local\Temp\VMBuilds\LAB8_NEW\stm32duino_genericSTM32F103C6\Release\core.a(HardwareSerial.cpp.o)
                0x08002cd2                HardwareSerial::write(unsigned char)
 .text._ZN14HardwareSerialC2EP9usart_devhh
                0x08002cf0       0x1c C:\Users\Данила Кондрашов\AppData\Local\Temp\VMBuilds\LAB8_NEW\stm32duino_genericSTM32F103C6\Release\core.a(HardwareSerial.cpp.o)
                0x08002cf0                HardwareSerial::HardwareSerial(usart_dev*, unsigned char, unsigned char)
                0x08002cf0                HardwareSerial::HardwareSerial(usart_dev*, unsigned char, unsigned char)
 .text._ZN14HardwareSerial5beginEmh
                0x08002d0c       0x78 C:\Users\Данила Кондрашов\AppData\Local\Temp\VMBuilds\LAB8_NEW\stm32duino_genericSTM32F103C6\Release\core.a(HardwareSerial.cpp.o)
                0x08002d0c                HardwareSerial::begin(unsigned long, unsigned char)
 .text._ZN14HardwareSerial5beginEm
                0x08002d84        0x6 C:\Users\Данила Кондрашов\AppData\Local\Temp\VMBuilds\LAB8_NEW\stm32duino_genericSTM32F103C6\Release\core.a(HardwareSerial.cpp.o)
                0x08002d84                HardwareSerial::begin(unsigned long)
 .text.startup._Z7premainv
                0x08002d8a        0x4 C:\Users\Данила Кондрашов\AppData\Local\Temp\VMBuilds\LAB8_NEW\stm32duino_genericSTM32F103C6\Release\core.a(main.cpp.o)
                0x08002d8a                premain()
 .text.startup.main
                0x08002d8e        0xc C:\Users\Данила Кондрашов\AppData\Local\Temp\VMBuilds\LAB8_NEW\stm32duino_genericSTM32F103C6\Release\core.a(main.cpp.o)
                0x08002d8e                main
 .text._ZN5Print5writeEPKvm
                0x08002d9a       0x20 C:\Users\Данила Кондрашов\AppData\Local\Temp\VMBuilds\LAB8_NEW\stm32duino_genericSTM32F103C6\Release\core.a(Print.cpp.o)
                0x08002d9a                Print::write(void const*, unsigned long)
 .text._ZN5Print5writeEPKc
                0x08002dba       0x1e C:\Users\Данила Кондрашов\AppData\Local\Temp\VMBuilds\LAB8_NEW\stm32duino_genericSTM32F103C6\Release\core.a(Print.cpp.o)
                0x08002dba                Print::write(char const*)
 .text._ZN5Print5printEc
                0x08002dd8        0xa C:\Users\Данила Кондрашов\AppData\Local\Temp\VMBuilds\LAB8_NEW\stm32duino_genericSTM32F103C6\Release\core.a(Print.cpp.o)
                0x08002dd8                Print::print(char)
 .text._ZN5Print5printEPKc
                0x08002de2        0xa C:\Users\Данила Кондрашов\AppData\Local\Temp\VMBuilds\LAB8_NEW\stm32duino_genericSTM32F103C6\Release\core.a(Print.cpp.o)
                0x08002de2                Print::print(char const*)
 .text._ZN5Print5printEPK19__FlashStringHelper
                0x08002dec        0x4 C:\Users\Данила Кондрашов\AppData\Local\Temp\VMBuilds\LAB8_NEW\stm32duino_genericSTM32F103C6\Release\core.a(Print.cpp.o)
                0x08002dec                Print::print(__FlashStringHelper const*)
 .text._ZN5Print7printlnEv
                0x08002df0       0x18 C:\Users\Данила Кондрашов\AppData\Local\Temp\VMBuilds\LAB8_NEW\stm32duino_genericSTM32F103C6\Release\core.a(Print.cpp.o)
                0x08002df0                Print::println()
 .text._ZN5Print7printlnEPKc
                0x08002e08       0x14 C:\Users\Данила Кондрашов\AppData\Local\Temp\VMBuilds\LAB8_NEW\stm32duino_genericSTM32F103C6\Release\core.a(Print.cpp.o)
                0x08002e08                Print::println(char const*)
 .text._ZN5Print7printlnEPK19__FlashStringHelper
                0x08002e1c       0x14 C:\Users\Данила Кондрашов\AppData\Local\Temp\VMBuilds\LAB8_NEW\stm32duino_genericSTM32F103C6\Release\core.a(Print.cpp.o)
                0x08002e1c                Print::println(__FlashStringHelper const*)
 .text._ZN5Print11printNumberEyh
                0x08002e30       0x84 C:\Users\Данила Кондрашов\AppData\Local\Temp\VMBuilds\LAB8_NEW\stm32duino_genericSTM32F103C6\Release\core.a(Print.cpp.o)
                0x08002e30                Print::printNumber(unsigned long long, unsigned char)
 .text._ZN5Print5printExi
                0x08002eb4       0x32 C:\Users\Данила Кондрашов\AppData\Local\Temp\VMBuilds\LAB8_NEW\stm32duino_genericSTM32F103C6\Release\core.a(Print.cpp.o)
                0x08002eb4                Print::print(long long, int)
 .text._ZN5Print5printEii
                0x08002ee6       0x12 C:\Users\Данила Кондрашов\AppData\Local\Temp\VMBuilds\LAB8_NEW\stm32duino_genericSTM32F103C6\Release\core.a(Print.cpp.o)
                0x08002ee6                Print::print(int, int)
 .text._ZN5Print10printFloatEdh
                0x08002ef8      0x158 C:\Users\Данила Кондрашов\AppData\Local\Temp\VMBuilds\LAB8_NEW\stm32duino_genericSTM32F103C6\Release\core.a(Print.cpp.o)
                0x08002ef8                Print::printFloat(double, unsigned char)
 .text._ZN5Print5printEdi
                0x08003050        0xa C:\Users\Данила Кондрашов\AppData\Local\Temp\VMBuilds\LAB8_NEW\stm32duino_genericSTM32F103C6\Release\core.a(Print.cpp.o)
                0x08003050                Print::print(double, int)
 *fill*         0x0800305a        0x2 
 .text._Z8pwmWriteht
                0x0800305c       0x24 C:\Users\Данила Кондрашов\AppData\Local\Temp\VMBuilds\LAB8_NEW\stm32duino_genericSTM32F103C6\Release\core.a(pwm.cpp.o)
                0x0800305c                pwmWrite(unsigned char, unsigned short)
 .text._Z11analogWritehi
                0x08003080       0x1c C:\Users\Данила Кондрашов\AppData\Local\Temp\VMBuilds\LAB8_NEW\stm32duino_genericSTM32F103C6\Release\core.a(pwm.cpp.o)
                0x08003080                analogWrite(unsigned char, int)
 .text._Z14tone_handler_1v
                0x0800309c       0x74 C:\Users\Данила Кондрашов\AppData\Local\Temp\VMBuilds\LAB8_NEW\stm32duino_genericSTM32F103C6\Release\core.a(tone.cpp.o)
                0x0800309c                tone_handler_1()
 .text._Z14tone_handler_2v
                0x08003110       0xa8 C:\Users\Данила Кондрашов\AppData\Local\Temp\VMBuilds\LAB8_NEW\stm32duino_genericSTM32F103C6\Release\core.a(tone.cpp.o)
                0x08003110                tone_handler_2()
 .text._Z4tonemmm
                0x080031b8      0x19c C:\Users\Данила Кондрашов\AppData\Local\Temp\VMBuilds\LAB8_NEW\stm32duino_genericSTM32F103C6\Release\core.a(tone.cpp.o)
                0x080031b8                tone(unsigned long, unsigned long, unsigned long)
 .text.startup._GLOBAL__sub_I_TTimer1
                0x08003354       0x38 C:\Users\Данила Кондрашов\AppData\Local\Temp\VMBuilds\LAB8_NEW\stm32duino_genericSTM32F103C6\Release\core.a(tone.cpp.o)
 .text._Z11digitalReadh
                0x0800338c       0x2c C:\Users\Данила Кондрашов\AppData\Local\Temp\VMBuilds\LAB8_NEW\stm32duino_genericSTM32F103C6\Release\core.a(wirish_digital.cpp.o)
                0x0800338c                digitalRead(unsigned char)
 .text._Z12digitalWritehh
                0x080033b8       0x2c C:\Users\Данила Кондрашов\AppData\Local\Temp\VMBuilds\LAB8_NEW\stm32duino_genericSTM32F103C6\Release\core.a(wirish_digital.cpp.o)
                0x080033b8                digitalWrite(unsigned char, unsigned char)
 .text.micros   0x080033e4       0x34 C:\Users\Данила Кондрашов\AppData\Local\Temp\VMBuilds\LAB8_NEW\stm32duino_genericSTM32F103C6\Release\core.a(wirish_time.cpp.o)
 .text.delay    0x08003418       0x2a C:\Users\Данила Кондрашов\AppData\Local\Temp\VMBuilds\LAB8_NEW\stm32duino_genericSTM32F103C6\Release\core.a(wirish_time.cpp.o)
                0x08003418                delay
 *fill*         0x08003442        0x2 
 .text._Z7pinModeh13WiringPinMode
                0x08003444       0x84 C:\Users\Данила Кондрашов\AppData\Local\Temp\VMBuilds\LAB8_NEW\stm32duino_genericSTM32F103C6\Release\core.a(wirish_digital_f1.cpp.o)
                0x08003444                pinMode(unsigned char, WiringPinMode)
 .text.__empty  0x080034c8        0x2 C:\Users\Данила Кондрашов\AppData\Local\Temp\VMBuilds\LAB8_NEW\stm32duino_genericSTM32F103C6\Release\core.a(hooks.c.o)
                0x080034c8                yield
 .text.gpio_init
                0x080034ca       0x14 C:\Users\Данила Кондрашов\AppData\Local\Temp\VMBuilds\LAB8_NEW\stm32duino_genericSTM32F103C6\Release\core.a(gpio.c.o)
                0x080034ca                gpio_init
 *fill*         0x080034de        0x2 
 .text.usart_init
                0x080034e0       0x4c C:\Users\Данила Кондрашов\AppData\Local\Temp\VMBuilds\LAB8_NEW\stm32duino_genericSTM32F103C6\Release\core.a(usart.c.o)
                0x080034e0                usart_init
 .text.usart_enable
                0x0800352c       0x14 C:\Users\Данила Кондрашов\AppData\Local\Temp\VMBuilds\LAB8_NEW\stm32duino_genericSTM32F103C6\Release\core.a(usart.c.o)
                0x0800352c                usart_enable
 .text.usart_tx
                0x08003540       0x9c C:\Users\Данила Кондрашов\AppData\Local\Temp\VMBuilds\LAB8_NEW\stm32duino_genericSTM32F103C6\Release\core.a(usart.c.o)
                0x08003540                usart_tx
 .text.set_this_dev
                0x080035dc       0x1c C:\Users\Данила Кондрашов\AppData\Local\Temp\VMBuilds\LAB8_NEW\stm32duino_genericSTM32F103C6\Release\core.a(HardwareTimer.cpp.o)
 .text._ZN13HardwareTimerC2Eh
                0x080035f8       0x2c C:\Users\Данила Кондрашов\AppData\Local\Temp\VMBuilds\LAB8_NEW\stm32duino_genericSTM32F103C6\Release\core.a(HardwareTimer.cpp.o)
                0x080035f8                HardwareTimer::HardwareTimer(unsigned char)
                0x080035f8                HardwareTimer::HardwareTimer(unsigned char)
 .text._ZN13HardwareTimer5pauseEv
                0x08003624       0x10 C:\Users\Данила Кондрашов\AppData\Local\Temp\VMBuilds\LAB8_NEW\stm32duino_genericSTM32F103C6\Release\core.a(HardwareTimer.cpp.o)
                0x08003624                HardwareTimer::pause()
 .text._ZN13HardwareTimer6resumeEv
                0x08003634       0x10 C:\Users\Данила Кондрашов\AppData\Local\Temp\VMBuilds\LAB8_NEW\stm32duino_genericSTM32F103C6\Release\core.a(HardwareTimer.cpp.o)
                0x08003634                HardwareTimer::resume()
 .text._ZN13HardwareTimer7setModeEi10timer_mode
                0x08003644        0x8 C:\Users\Данила Кондрашов\AppData\Local\Temp\VMBuilds\LAB8_NEW\stm32duino_genericSTM32F103C6\Release\core.a(HardwareTimer.cpp.o)
                0x08003644                HardwareTimer::setMode(int, timer_mode)
 .text._ZN13HardwareTimer10setCompareEit
                0x0800364c       0x1e C:\Users\Данила Кондрашов\AppData\Local\Temp\VMBuilds\LAB8_NEW\stm32duino_genericSTM32F103C6\Release\core.a(HardwareTimer.cpp.o)
                0x0800364c                HardwareTimer::setCompare(int, unsigned short)
 .text._ZN13HardwareTimer15attachInterruptEiPFvvE
                0x0800366a        0x8 C:\Users\Данила Кондрашов\AppData\Local\Temp\VMBuilds\LAB8_NEW\stm32duino_genericSTM32F103C6\Release\core.a(HardwareTimer.cpp.o)
                0x0800366a                HardwareTimer::attachInterrupt(int, void (*)())
 .text._ZN13HardwareTimer15detachInterruptEi
                0x08003672        0x8 C:\Users\Данила Кондрашов\AppData\Local\Temp\VMBuilds\LAB8_NEW\stm32duino_genericSTM32F103C6\Release\core.a(HardwareTimer.cpp.o)
                0x08003672                HardwareTimer::detachInterrupt(int)
 .text._ZN13HardwareTimer7refreshEv
                0x0800367a       0x12 C:\Users\Данила Кондрашов\AppData\Local\Temp\VMBuilds\LAB8_NEW\stm32duino_genericSTM32F103C6\Release\core.a(HardwareTimer.cpp.o)
                0x0800367a                HardwareTimer::refresh()
 .text.startup._GLOBAL__sub_I__ZN13HardwareTimerC2Eh
                0x0800368c       0x38 C:\Users\Данила Кондрашов\AppData\Local\Temp\VMBuilds\LAB8_NEW\stm32duino_genericSTM32F103C6\Release\core.a(HardwareTimer.cpp.o)
 .text          0x080036c4      0x370 c:/users/данила кондрашов/appdata/local/arduino15/packages/arduino/tools/arm-none-eabi-gcc/4.8.3-2014q1/bin/../lib/gcc/arm-none-eabi/4.8.3/armv7-m\libgcc.a(_arm_addsubdf3.o)
                0x080036c4                __aeabi_drsub
                0x080036cc                __aeabi_dsub
                0x080036cc                __subdf3
                0x080036d0                __aeabi_dadd
                0x080036d0                __adddf3
                0x08003948                __floatunsidf
                0x08003948                __aeabi_ui2d
                0x08003968                __floatsidf
                0x08003968                __aeabi_i2d
                0x0800398c                __aeabi_f2d
                0x0800398c                __extendsfdf2
                0x080039c8                __floatundidf
                0x080039c8                __aeabi_ul2d
                0x080039d8                __floatdidf
                0x080039d8                __aeabi_l2d
 .text          0x08003a34      0x424 c:/users/данила кондрашов/appdata/local/arduino15/packages/arduino/tools/arm-none-eabi-gcc/4.8.3-2014q1/bin/../lib/gcc/arm-none-eabi/4.8.3/armv7-m\libgcc.a(_arm_muldivdf3.o)
                0x08003a34                __aeabi_dmul
                0x08003a34                __muldf3
                0x08003c88                __divdf3
                0x08003c88                __aeabi_ddiv
 .text          0x08003e58      0x110 c:/users/данила кондрашов/appdata/local/arduino15/packages/arduino/tools/arm-none-eabi-gcc/4.8.3-2014q1/bin/../lib/gcc/arm-none-eabi/4.8.3/armv7-m\libgcc.a(_arm_cmpdf2.o)
                0x08003e58                __gtdf2
                0x08003e58                __gedf2
                0x08003e60                __ltdf2
                0x08003e60                __ledf2
                0x08003e68                __nedf2
                0x08003e68                __eqdf2
                0x08003e68                __cmpdf2
                0x08003ee4                __aeabi_cdrcmple
                0x08003ef4                __aeabi_cdcmpeq
                0x08003ef4                __aeabi_cdcmple
                0x08003f04                __aeabi_dcmpeq
                0x08003f18                __aeabi_dcmplt
                0x08003f2c                __aeabi_dcmple
                0x08003f40                __aeabi_dcmpge
                0x08003f54                __aeabi_dcmpgt
 .text          0x08003f68       0x50 c:/users/данила кондрашов/appdata/local/arduino15/packages/arduino/tools/arm-none-eabi-gcc/4.8.3-2014q1/bin/../lib/gcc/arm-none-eabi/4.8.3/armv7-m\libgcc.a(_arm_fixdfsi.o)
                0x08003f68                __aeabi_d2iz
                0x08003f68                __fixdfsi
 .text          0x08003fb8      0x21c c:/users/данила кондрашов/appdata/local/arduino15/packages/arduino/tools/arm-none-eabi-gcc/4.8.3-2014q1/bin/../lib/gcc/arm-none-eabi/4.8.3/armv7-m\libgcc.a(_arm_addsubsf3.o)
                0x08003fb8                __aeabi_frsub
                0x08003fc0                __subsf3
                0x08003fc0                __aeabi_fsub
                0x08003fc4                __aeabi_fadd
                0x08003fc4                __addsf3
                0x08004124                __aeabi_ui2f
                0x08004124                __floatunsisf
                0x0800412c                __aeabi_i2f
                0x0800412c                __floatsisf
                0x08004148                __aeabi_ul2f
                0x08004148                __floatundisf
                0x08004158                __aeabi_l2f
                0x08004158                __floatdisf
 .text          0x080041d4      0x2a0 c:/users/данила кондрашов/appdata/local/arduino15/packages/arduino/tools/arm-none-eabi-gcc/4.8.3-2014q1/bin/../lib/gcc/arm-none-eabi/4.8.3/armv7-m\libgcc.a(_arm_muldivsf3.o)
                0x080041d4                __mulsf3
                0x080041d4                __aeabi_fmul
                0x0800433c                __aeabi_fdiv
                0x0800433c                __divsf3
 .text          0x08004474       0x2c c:/users/данила кондрашов/appdata/local/arduino15/packages/arduino/tools/arm-none-eabi-gcc/4.8.3-2014q1/bin/../lib/gcc/arm-none-eabi/4.8.3/armv7-m\libgcc.a(_aeabi_uldivmod.o)
                0x08004474                __aeabi_uldivmod
 .text          0x080044a0       0x30 c:/users/данила кондрашов/appdata/local/arduino15/packages/arduino/tools/arm-none-eabi-gcc/4.8.3-2014q1/bin/../lib/gcc/arm-none-eabi/4.8.3/armv7-m\libgcc.a(_fixdfdi.o)
                0x080044a0                __fixdfdi
                0x080044a0                __aeabi_d2lz
 .text          0x080044d0       0x44 c:/users/данила кондрашов/appdata/local/arduino15/packages/arduino/tools/arm-none-eabi-gcc/4.8.3-2014q1/bin/../lib/gcc/arm-none-eabi/4.8.3/armv7-m\libgcc.a(_fixunsdfdi.o)
                0x080044d0                __fixunsdfdi
                0x080044d0                __aeabi_d2ulz
 .text          0x08004514       0x60 c:/users/данила кондрашов/appdata/local/arduino15/packages/arduino/tools/arm-none-eabi-gcc/4.8.3-2014q1/bin/../lib/gcc/arm-none-eabi/4.8.3/armv7-m\libgcc.a(bpabi.o)
                0x08004514                __gnu_ldivmod_helper
                0x08004544                __gnu_uldivmod_helper
 .text          0x08004574        0x4 c:/users/данила кондрашов/appdata/local/arduino15/packages/arduino/tools/arm-none-eabi-gcc/4.8.3-2014q1/bin/../lib/gcc/arm-none-eabi/4.8.3/armv7-m\libgcc.a(_dvmd_tls.o)
                0x08004574                __aeabi_idiv0
                0x08004574                __aeabi_ldiv0
 .text          0x08004578       0x40 c:/users/данила кондрашов/appdata/local/arduino15/packages/arduino/tools/arm-none-eabi-gcc/4.8.3-2014q1/bin/../lib/gcc/arm-none-eabi/4.8.3/armv7-m\libgcc.a(_arm_fixunsdfsi.o)
                0x08004578                __aeabi_d2uiz
                0x08004578                __fixunsdfsi
 .text          0x080045b8      0x2a0 c:/users/данила кондрашов/appdata/local/arduino15/packages/arduino/tools/arm-none-eabi-gcc/4.8.3-2014q1/bin/../lib/gcc/arm-none-eabi/4.8.3/armv7-m\libgcc.a(_divdi3.o)
                0x080045b8                __divdi3
 .text          0x08004858      0x290 c:/users/данила кондрашов/appdata/local/arduino15/packages/arduino/tools/arm-none-eabi-gcc/4.8.3-2014q1/bin/../lib/gcc/arm-none-eabi/4.8.3/armv7-m\libgcc.a(_udivdi3.o)
                0x08004858                __udivdi3
 .text.__libc_init_array
                0x08004ae8       0x4c c:/users/данила кондрашов/appdata/local/arduino15/packages/arduino/tools/arm-none-eabi-gcc/4.8.3-2014q1/bin/../lib/gcc/arm-none-eabi/4.8.3/../../../../arm-none-eabi/lib/armv7-m\libc_s.a(lib_a-init.o)
                0x08004ae8                __libc_init_array
 .text.strlen   0x08004b34       0x10 c:/users/данила кондрашов/appdata/local/arduino15/packages/arduino/tools/arm-none-eabi-gcc/4.8.3-2014q1/bin/../lib/gcc/arm-none-eabi/4.8.3/../../../../arm-none-eabi/lib/armv7-m\libc_s.a(lib_a-strlen.o)
                0x08004b34                strlen
 *(.plt)
 *(.gnu.warning)
 *(.glue_7t)
 .glue_7t       0x00000000        0x0 linker stubs
 *(.glue_7)
 .glue_7        0x00000000        0x0 linker stubs
 *(.vfp11_veneer)
 .vfp11_veneer  0x00000000        0x0 linker stubs
 *(.ARM.extab* .gnu.linkonce.armextab.*)
 *(.gcc_except_table)
 *(.eh_frame_hdr)
 *(.eh_frame)
 .eh_frame      0x08004b44        0x0 c:/users/данила кондрашов/appdata/local/arduino15/packages/arduino/tools/arm-none-eabi-gcc/4.8.3-2014q1/bin/../lib/gcc/arm-none-eabi/4.8.3/armv7-m/crtbegin.o
                0x08004b44                . = ALIGN (0x4)
 *(.init)
 .init          0x08004b44        0x4 c:/users/данила кондрашов/appdata/local/arduino15/packages/arduino/tools/arm-none-eabi-gcc/4.8.3-2014q1/bin/../lib/gcc/arm-none-eabi/4.8.3/armv7-m/crti.o
                0x08004b44                _init
 .init          0x08004b48        0x8 c:/users/данила кондрашов/appdata/local/arduino15/packages/arduino/tools/arm-none-eabi-gcc/4.8.3-2014q1/bin/../lib/gcc/arm-none-eabi/4.8.3/armv7-m/crtn.o
                0x08004b50                . = ALIGN (0x4)
                0x08004b50                __preinit_array_start = .
 *(.preinit_array)
                0x08004b50                __preinit_array_end = .
                0x08004b50                . = ALIGN (0x4)
                0x08004b50                __init_array_start = .
 *(SORT(.init_array.*))
 .init_array.00101
                0x08004b50        0x4 C:\Users\Данила Кондрашов\AppData\Local\Temp\VMBuilds\LAB8_NEW\stm32duino_genericSTM32F103C6\Release\core.a(main.cpp.o)
 *(.init_array)
 .init_array    0x08004b54        0x4 c:/users/данила кондрашов/appdata/local/arduino15/packages/arduino/tools/arm-none-eabi-gcc/4.8.3-2014q1/bin/../lib/gcc/arm-none-eabi/4.8.3/armv7-m/crtbegin.o
 .init_array    0x08004b58        0x4 LAB8_NEW.cpp.o
 .init_array    0x08004b5c        0x4 Wire\Wire.cpp.o
 .init_array    0x08004b60        0x4 C:\Users\Данила Кондрашов\AppData\Local\Temp\VMBCore\arduino16x\1ff78a0346523d7d91af874899f893a8\variant\board.cpp.o
 .init_array    0x08004b64        0x4 C:\Users\Данила Кондрашов\AppData\Local\Temp\VMBuilds\LAB8_NEW\stm32duino_genericSTM32F103C6\Release\core.a(tone.cpp.o)
 .init_array    0x08004b68        0x4 C:\Users\Данила Кондрашов\AppData\Local\Temp\VMBuilds\LAB8_NEW\stm32duino_genericSTM32F103C6\Release\core.a(HardwareTimer.cpp.o)
                0x08004b6c                __init_array_end = .
                0x08004b6c                . = ALIGN (0x4)
 *crtbegin.o(.ctors)
 *(EXCLUDE_FILE(*crtend.o) .ctors)
 *(SORT(.ctors.*))
 *crtend.o(.ctors)
                0x08004b6c                . = ALIGN (0x4)
 *(.fini)
 .fini          0x08004b6c        0x4 c:/users/данила кондрашов/appdata/local/arduino15/packages/arduino/tools/arm-none-eabi-gcc/4.8.3-2014q1/bin/../lib/gcc/arm-none-eabi/4.8.3/armv7-m/crti.o
                0x08004b6c                _fini
 .fini          0x08004b70        0x8 c:/users/данила кондрашов/appdata/local/arduino15/packages/arduino/tools/arm-none-eabi-gcc/4.8.3-2014q1/bin/../lib/gcc/arm-none-eabi/4.8.3/armv7-m/crtn.o
                0x08004b78                . = ALIGN (0x4)
                0x08004b78                __fini_array_start = .
 *(.fini_array)
 .fini_array    0x08004b78        0x4 c:/users/данила кондрашов/appdata/local/arduino15/packages/arduino/tools/arm-none-eabi-gcc/4.8.3-2014q1/bin/../lib/gcc/arm-none-eabi/4.8.3/armv7-m/crtbegin.o
 .fini_array    0x08004b7c        0x4 Wire\Wire.cpp.o
 *(SORT(.fini_array.*))
                0x08004b80                __fini_array_end = .
 *crtbegin.o(.dtors)
 *(EXCLUDE_FILE(*crtend.o) .dtors)
 *(SORT(.dtors.*))
 *crtend.o(.dtors)

.v4_bx          0x08004b80        0x0
 .v4_bx         0x00000000        0x0 linker stubs

.iplt           0x08004b80        0x0
 .iplt          0x00000000        0x0 c:/users/данила кондрашов/appdata/local/arduino15/packages/arduino/tools/arm-none-eabi-gcc/4.8.3-2014q1/bin/../lib/gcc/arm-none-eabi/4.8.3/armv7-m/crtbegin.o

.text.align     0x08004b80        0x0
                0x08004b80                . = ALIGN (0x8)
                0x08004b80                __text_end__ = .
                0x08004b80                __exidx_start = .

.ARM.exidx      0x08004b80        0x8
 *(.ARM.exidx* .gnu.linkonce.armexidx.*)
 .ARM.exidx     0x08004b80        0x8 C:\Users\Данила Кондрашов\AppData\Local\Temp\VMBCore\arduino16x\1ff78a0346523d7d91af874899f893a8\variant\start.S.o
 .ARM.exidx     0x08004b88        0x0 c:/users/данила кондрашов/appdata/local/arduino15/packages/arduino/tools/arm-none-eabi-gcc/4.8.3-2014q1/bin/../lib/gcc/arm-none-eabi/4.8.3/armv7-m\libgcc.a(_divdi3.o)
                                  0x8 (size before relaxing)
 .ARM.exidx     0x08004b88        0x0 c:/users/данила кондрашов/appdata/local/arduino15/packages/arduino/tools/arm-none-eabi-gcc/4.8.3-2014q1/bin/../lib/gcc/arm-none-eabi/4.8.3/armv7-m\libgcc.a(_udivdi3.o)
                                  0x8 (size before relaxing)
                0x08004b88                __exidx_end = .

.data           0x20000000      0x420 load address 0x08004b88
                0x20000000                __data_start__ = .
                0x20000000        0x4 LONG 0x0
                0x20000008                . = ALIGN (0x8)
 *fill*         0x20000004        0x4 
 *(.got.plt)
 *(.got)
 *(.data .data.* .gnu.linkonce.d.*)
 .data._ZN6wirish4privL8pll_dataE
                0x20000008        0x4 C:\Users\Данила Кондрашов\AppData\Local\Temp\VMBCore\arduino16x\1ff78a0346523d7d91af874899f893a8\variant\wirish\boards_setup.cpp.o
 .data._ZN6wirish4priv9w_adc_smpE
                0x2000000c        0x1 C:\Users\Данила Кондрашов\AppData\Local\Temp\VMBCore\arduino16x\1ff78a0346523d7d91af874899f893a8\variant\wirish\boards_setup.cpp.o
                0x2000000c                wirish::priv::w_adc_smp
 *fill*         0x2000000d        0x1 
 .data._ZN6wirish4priv9w_adc_preE
                0x2000000e        0x2 C:\Users\Данила Кондрашов\AppData\Local\Temp\VMBCore\arduino16x\1ff78a0346523d7d91af874899f893a8\variant\wirish\boards_setup.cpp.o
                0x2000000e                wirish::priv::w_adc_pre
 .data._ZN6wirish4priv15w_board_pll_cfgE
                0x20000010        0x8 C:\Users\Данила Кондрашов\AppData\Local\Temp\VMBCore\arduino16x\1ff78a0346523d7d91af874899f893a8\variant\wirish\boards_setup.cpp.o
                0x20000010                wirish::priv::w_board_pll_cfg
 .data.adc2     0x20000018        0x8 C:\Users\Данила Кондрашов\AppData\Local\Temp\VMBuilds\LAB8_NEW\stm32duino_genericSTM32F103C6\Release\core.a(adc_f1.c.o)
                0x20000018                adc2
 .data.adc1     0x20000020       0x18 C:\Users\Данила Кондрашов\AppData\Local\Temp\VMBuilds\LAB8_NEW\stm32duino_genericSTM32F103C6\Release\core.a(adc_f1.c.o)
                0x20000020                adc1
 .data.ADC2     0x20000038        0x4 C:\Users\Данила Кондрашов\AppData\Local\Temp\VMBuilds\LAB8_NEW\stm32duino_genericSTM32F103C6\Release\core.a(adc_f1.c.o)
                0x20000038                ADC2
 .data.ADC1     0x2000003c        0x4 C:\Users\Данила Кондрашов\AppData\Local\Temp\VMBuilds\LAB8_NEW\stm32duino_genericSTM32F103C6\Release\core.a(adc_f1.c.o)
                0x2000003c                ADC1
 .data.dma1     0x20000040       0x40 C:\Users\Данила Кондрашов\AppData\Local\Temp\VMBuilds\LAB8_NEW\stm32duino_genericSTM32F103C6\Release\core.a(dma_f1.c.o)
 .data.DMA1     0x20000080        0x4 C:\Users\Данила Кондрашов\AppData\Local\Temp\VMBuilds\LAB8_NEW\stm32duino_genericSTM32F103C6\Release\core.a(dma_f1.c.o)
                0x20000080                DMA1
 .data.gpioa    0x20000084        0x8 C:\Users\Данила Кондрашов\AppData\Local\Temp\VMBuilds\LAB8_NEW\stm32duino_genericSTM32F103C6\Release\core.a(gpio_f1.c.o)
                0x20000084                gpioa
 .data.gpiob    0x2000008c        0x8 C:\Users\Данила Кондрашов\AppData\Local\Temp\VMBuilds\LAB8_NEW\stm32duino_genericSTM32F103C6\Release\core.a(gpio_f1.c.o)
                0x2000008c                gpiob
 .data.gpioc    0x20000094        0x8 C:\Users\Данила Кондрашов\AppData\Local\Temp\VMBuilds\LAB8_NEW\stm32duino_genericSTM32F103C6\Release\core.a(gpio_f1.c.o)
                0x20000094                gpioc
 .data.gpiod    0x2000009c        0x8 C:\Users\Данила Кондрашов\AppData\Local\Temp\VMBuilds\LAB8_NEW\stm32duino_genericSTM32F103C6\Release\core.a(gpio_f1.c.o)
                0x2000009c                gpiod
 .data.i2c1     0x200000a4       0x38 C:\Users\Данила Кондрашов\AppData\Local\Temp\VMBuilds\LAB8_NEW\stm32duino_genericSTM32F103C6\Release\core.a(i2c_f1.c.o)
 .data.i2c2     0x200000dc       0x38 C:\Users\Данила Кондрашов\AppData\Local\Temp\VMBuilds\LAB8_NEW\stm32duino_genericSTM32F103C6\Release\core.a(i2c_f1.c.o)
 .data.enable_regs.4411
                0x20000114        0xc C:\Users\Данила Кондрашов\AppData\Local\Temp\VMBuilds\LAB8_NEW\stm32duino_genericSTM32F103C6\Release\core.a(rcc_f1.c.o)
 .data.reset_regs.4415
                0x20000120        0x8 C:\Users\Данила Кондрашов\AppData\Local\Temp\VMBuilds\LAB8_NEW\stm32duino_genericSTM32F103C6\Release\core.a(rcc_f1.c.o)
 .data.enable_regs.4424
                0x20000128        0xc C:\Users\Данила Кондрашов\AppData\Local\Temp\VMBuilds\LAB8_NEW\stm32duino_genericSTM32F103C6\Release\core.a(rcc_f1.c.o)
 .data.timer3   0x20000134       0x24 C:\Users\Данила Кондрашов\AppData\Local\Temp\VMBuilds\LAB8_NEW\stm32duino_genericSTM32F103C6\Release\core.a(timer.c.o)
                0x20000134                timer3
 .data.timer4   0x20000158       0x24 C:\Users\Данила Кондрашов\AppData\Local\Temp\VMBuilds\LAB8_NEW\stm32duino_genericSTM32F103C6\Release\core.a(timer.c.o)
                0x20000158                timer4
 .data.timer1   0x2000017c       0x28 C:\Users\Данила Кондрашов\AppData\Local\Temp\VMBuilds\LAB8_NEW\stm32duino_genericSTM32F103C6\Release\core.a(timer.c.o)
                0x2000017c                timer1
 .data.timer2   0x200001a4       0x24 C:\Users\Данила Кондрашов\AppData\Local\Temp\VMBuilds\LAB8_NEW\stm32duino_genericSTM32F103C6\Release\core.a(timer.c.o)
                0x200001a4                timer2
 .data.USART1   0x200001c8        0x4 C:\Users\Данила Кондрашов\AppData\Local\Temp\VMBuilds\LAB8_NEW\stm32duino_genericSTM32F103C6\Release\core.a(usart_f1.c.o)
                0x200001c8                USART1
 .data.USART2   0x200001cc        0x4 C:\Users\Данила Кондрашов\AppData\Local\Temp\VMBuilds\LAB8_NEW\stm32duino_genericSTM32F103C6\Release\core.a(usart_f1.c.o)
                0x200001cc                USART2
 .data.USART3   0x200001d0        0x4 C:\Users\Данила Кондрашов\AppData\Local\Temp\VMBuilds\LAB8_NEW\stm32duino_genericSTM32F103C6\Release\core.a(usart_f1.c.o)
                0x200001d0                USART3
 .data.usart1   0x200001d4       0x94 C:\Users\Данила Кондрашов\AppData\Local\Temp\VMBuilds\LAB8_NEW\stm32duino_genericSTM32F103C6\Release\core.a(usart_f1.c.o)
 .data.usart2   0x20000268       0x94 C:\Users\Данила Кондрашов\AppData\Local\Temp\VMBuilds\LAB8_NEW\stm32duino_genericSTM32F103C6\Release\core.a(usart_f1.c.o)
 .data.usart3   0x200002fc       0x94 C:\Users\Данила Кондрашов\AppData\Local\Temp\VMBuilds\LAB8_NEW\stm32duino_genericSTM32F103C6\Release\core.a(usart_f1.c.o)
 .data.USBLIB   0x20000390        0x4 C:\Users\Данила Кондрашов\AppData\Local\Temp\VMBuilds\LAB8_NEW\stm32duino_genericSTM32F103C6\Release\core.a(usb.c.o)
                0x20000390                USBLIB
 .data.usblib   0x20000394       0x10 C:\Users\Данила Кондрашов\AppData\Local\Temp\VMBuilds\LAB8_NEW\stm32duino_genericSTM32F103C6\Release\core.a(usb.c.o)
 .data.Config_Descriptor
                0x200003a4        0x8 C:\Users\Данила Кондрашов\AppData\Local\Temp\VMBuilds\LAB8_NEW\stm32duino_genericSTM32F103C6\Release\core.a(usb_cdcacm.c.o)
 .data.Device_Property
                0x200003ac       0x30 C:\Users\Данила Кондрашов\AppData\Local\Temp\VMBuilds\LAB8_NEW\stm32duino_genericSTM32F103C6\Release\core.a(usb_cdcacm.c.o)
                0x200003ac                Device_Property
 .data.String_Descriptor
                0x200003dc       0x18 C:\Users\Данила Кондрашов\AppData\Local\Temp\VMBuilds\LAB8_NEW\stm32duino_genericSTM32F103C6\Release\core.a(usb_cdcacm.c.o)
 .data.line_coding
                0x200003f4        0x7 C:\Users\Данила Кондрашов\AppData\Local\Temp\VMBuilds\LAB8_NEW\stm32duino_genericSTM32F103C6\Release\core.a(usb_cdcacm.c.o)
 *fill*         0x200003fb        0x1 
 .data.Device_Descriptor
                0x200003fc        0x8 C:\Users\Данила Кондрашов\AppData\Local\Temp\VMBuilds\LAB8_NEW\stm32duino_genericSTM32F103C6\Release\core.a(usb_cdcacm.c.o)
 .data.Device_Table
                0x20000404        0x2 C:\Users\Данила Кондрашов\AppData\Local\Temp\VMBuilds\LAB8_NEW\stm32duino_genericSTM32F103C6\Release\core.a(usb_cdcacm.c.o)
                0x20000404                Device_Table
 .data.tone_ntimer
                0x20000406        0x1 C:\Users\Данила Кондрашов\AppData\Local\Temp\VMBuilds\LAB8_NEW\stm32duino_genericSTM32F103C6\Release\core.a(tone.cpp.o)
                0x20000406                tone_ntimer
 .data.tone_channel
                0x20000407        0x1 C:\Users\Данила Кондрашов\AppData\Local\Temp\VMBuilds\LAB8_NEW\stm32duino_genericSTM32F103C6\Release\core.a(tone.cpp.o)
                0x20000407                tone_channel
 .data.tone_pin
                0x20000408        0x2 C:\Users\Данила Кондрашов\AppData\Local\Temp\VMBuilds\LAB8_NEW\stm32duino_genericSTM32F103C6\Release\core.a(tone.cpp.o)
                0x20000408                tone_pin
 .data.tone_state
                0x2000040a        0x1 C:\Users\Данила Кондрашов\AppData\Local\Temp\VMBuilds\LAB8_NEW\stm32duino_genericSTM32F103C6\Release\core.a(tone.cpp.o)
                0x2000040a                tone_state
 *fill*         0x2000040b        0x1 
 .data.TTimer   0x2000040c       0x10 C:\Users\Данила Кондрашов\AppData\Local\Temp\VMBuilds\LAB8_NEW\stm32duino_genericSTM32F103C6\Release\core.a(tone.cpp.o)
                0x2000040c                TTimer
 .data.tone_freq
                0x2000041c        0x2 C:\Users\Данила Кондрашов\AppData\Local\Temp\VMBuilds\LAB8_NEW\stm32duino_genericSTM32F103C6\Release\core.a(tone.cpp.o)
                0x2000041c                tone_freq
                0x20000420                . = ALIGN (0x8)
 *fill*         0x2000041e        0x2 
                0x20000420                __data_end__ = .

.jcr            0x20000420        0x0 load address 0x08004fa8
 .jcr           0x20000420        0x0 c:/users/данила кондрашов/appdata/local/arduino15/packages/arduino/tools/arm-none-eabi-gcc/4.8.3-2014q1/bin/../lib/gcc/arm-none-eabi/4.8.3/armv7-m/crtbegin.o

.igot.plt       0x20000420        0x0 load address 0x08004fa8
 .igot.plt      0x00000000        0x0 c:/users/данила кондрашов/appdata/local/arduino15/packages/arduino/tools/arm-none-eabi-gcc/4.8.3-2014q1/bin/../lib/gcc/arm-none-eabi/4.8.3/armv7-m/crtbegin.o

.rodata         0x08004fa8      0x458
 *(.rodata .rodata.* .gnu.linkonce.r.*)
 .rodata.str1.1
                0x08004fa8       0xc8 LAB8_NEW.cpp.o
                                 0xcb (size before relaxing)
 .rodata._ZTV7TwoWire
                0x08005070       0x18 Wire\Wire.cpp.o
                0x08005070                vtable for TwoWire
 .rodata._ZTV8WireBase
                0x08005088       0x18 Wire\utility\WireBase.cpp.o
                0x08005088                vtable for WireBase
 .rodata.PIN_MAP
                0x080050a0      0x230 C:\Users\Данила Кондрашов\AppData\Local\Temp\VMBCore\arduino16x\1ff78a0346523d7d91af874899f893a8\variant\board.cpp.o
                0x080050a0                PIN_MAP
 .rodata.GPIOC  0x080052d0        0x4 C:\Users\Данила Кондрашов\AppData\Local\Temp\VMBuilds\LAB8_NEW\stm32duino_genericSTM32F103C6\Release\core.a(gpio_f1.c.o)
                0x080052d0                GPIOC
 .rodata.I2C1   0x080052d4        0x4 C:\Users\Данила Кондрашов\AppData\Local\Temp\VMBuilds\LAB8_NEW\stm32duino_genericSTM32F103C6\Release\core.a(i2c_f1.c.o)
                0x080052d4                I2C1
 .rodata.rcc_dev_table
                0x080052d8       0x5c C:\Users\Данила Кондрашов\AppData\Local\Temp\VMBuilds\LAB8_NEW\stm32duino_genericSTM32F103C6\Release\core.a(rcc_f1.c.o)
                0x080052d8                rcc_dev_table
 .rodata.masks.4420
                0x08005334       0x14 C:\Users\Данила Кондрашов\AppData\Local\Temp\VMBuilds\LAB8_NEW\stm32duino_genericSTM32F103C6\Release\core.a(rcc_f1.c.o)
 .rodata.usbVcomDescriptor_iProduct
                0x08005348        0xc C:\Users\Данила Кондрашов\AppData\Local\Temp\VMBuilds\LAB8_NEW\stm32duino_genericSTM32F103C6\Release\core.a(usb_cdcacm.c.o)
 .rodata.usbVcomDescriptor_iManufacturer
                0x08005354       0x12 C:\Users\Данила Кондрашов\AppData\Local\Temp\VMBuilds\LAB8_NEW\stm32duino_genericSTM32F103C6\Release\core.a(usb_cdcacm.c.o)
 .rodata.usbVcomDescriptor_Device
                0x08005366       0x12 C:\Users\Данила Кондрашов\AppData\Local\Temp\VMBuilds\LAB8_NEW\stm32duino_genericSTM32F103C6\Release\core.a(usb_cdcacm.c.o)
 .rodata.usbVcomDescriptor_Config
                0x08005378       0x43 C:\Users\Данила Кондрашов\AppData\Local\Temp\VMBuilds\LAB8_NEW\stm32duino_genericSTM32F103C6\Release\core.a(usb_cdcacm.c.o)
 .rodata.usbVcomDescriptor_LangID
                0x080053bb        0x4 C:\Users\Данила Кондрашов\AppData\Local\Temp\VMBuilds\LAB8_NEW\stm32duino_genericSTM32F103C6\Release\core.a(usb_cdcacm.c.o)
 *fill*         0x080053bf        0x1 
 .rodata._ZTV14HardwareSerial
                0x080053c0       0x28 C:\Users\Данила Кондрашов\AppData\Local\Temp\VMBuilds\LAB8_NEW\stm32duino_genericSTM32F103C6\Release\core.a(HardwareSerial.cpp.o)
                0x080053c0                vtable for HardwareSerial
 .rodata.str1.1
                0x080053e8       0x11 C:\Users\Данила Кондрашов\AppData\Local\Temp\VMBuilds\LAB8_NEW\stm32duino_genericSTM32F103C6\Release\core.a(Print.cpp.o)
 *(.USER_FLASH)
                0x080053fc                . = ALIGN (0x4)
 *fill*         0x080053f9        0x3 
                0x080053fc                _lm_rom_img_cfgp = .
                0x080053fc        0x4 LONG 0x8004b88 LOADADDR (.data)
                0x20000668                _lm_heap_start = DEFINED (_lm_heap_start)?_lm_heap_start:_end
                0x20002800                _lm_heap_end = DEFINED (_lm_heap_end)?_lm_heap_end:__msp_init

.rel.dyn        0x08005400        0x0
 .rel.iplt      0x00000000        0x0 c:/users/данила кондрашов/appdata/local/arduino15/packages/arduino/tools/arm-none-eabi-gcc/4.8.3-2014q1/bin/../lib/gcc/arm-none-eabi/4.8.3/armv7-m/crtbegin.o

.bss            0x20000420      0x248
                0x20000420                . = ALIGN (0x8)
                0x20000420                __bss_start__ = .
 *(.bss .bss.* .gnu.linkonce.b.*)
 .bss           0x20000420       0x1c c:/users/данила кондрашов/appdata/local/arduino15/packages/arduino/tools/arm-none-eabi-gcc/4.8.3-2014q1/bin/../lib/gcc/arm-none-eabi/4.8.3/armv7-m/crtbegin.o
 .bss.lm75a     0x2000043c        0x1 LAB8_NEW.cpp.o
                0x2000043c                lm75a
 *fill*         0x2000043d        0x3 
 .bss.Wire      0x20000440       0x60 Wire\Wire.cpp.o
                0x20000440                Wire
 .bss.Serial1   0x200004a0       0x18 C:\Users\Данила Кондрашов\AppData\Local\Temp\VMBCore\arduino16x\1ff78a0346523d7d91af874899f893a8\variant\board.cpp.o
                0x200004a0                Serial1
 .bss.Serial2   0x200004b8       0x18 C:\Users\Данила Кондрашов\AppData\Local\Temp\VMBCore\arduino16x\1ff78a0346523d7d91af874899f893a8\variant\board.cpp.o
                0x200004b8                Serial2
 .bss.Serial3   0x200004d0       0x18 C:\Users\Данила Кондрашов\AppData\Local\Temp\VMBCore\arduino16x\1ff78a0346523d7d91af874899f893a8\variant\board.cpp.o
                0x200004d0                Serial3
 .bss.exti_channels
                0x200004e8       0x80 C:\Users\Данила Кондрашов\AppData\Local\Temp\VMBuilds\LAB8_NEW\stm32duino_genericSTM32F103C6\Release\core.a(exti.c.o)
                0x200004e8                exti_channels
 .bss.systick_user_callback
                0x20000568        0x4 C:\Users\Данила Кондрашов\AppData\Local\Temp\VMBuilds\LAB8_NEW\stm32duino_genericSTM32F103C6\Release\core.a(systick.c.o)
 .bss.usart1_wb
                0x2000056c        0xc C:\Users\Данила Кондрашов\AppData\Local\Temp\VMBuilds\LAB8_NEW\stm32duino_genericSTM32F103C6\Release\core.a(usart_f1.c.o)
 .bss.usart1_rb
                0x20000578        0xc C:\Users\Данила Кондрашов\AppData\Local\Temp\VMBuilds\LAB8_NEW\stm32duino_genericSTM32F103C6\Release\core.a(usart_f1.c.o)
 .bss.usart2_rb
                0x20000584        0xc C:\Users\Данила Кондрашов\AppData\Local\Temp\VMBuilds\LAB8_NEW\stm32duino_genericSTM32F103C6\Release\core.a(usart_f1.c.o)
 .bss.usart3_rb
                0x20000590        0xc C:\Users\Данила Кондрашов\AppData\Local\Temp\VMBuilds\LAB8_NEW\stm32duino_genericSTM32F103C6\Release\core.a(usart_f1.c.o)
 .bss.usart2_wb
                0x2000059c        0xc C:\Users\Данила Кондрашов\AppData\Local\Temp\VMBuilds\LAB8_NEW\stm32duino_genericSTM32F103C6\Release\core.a(usart_f1.c.o)
 .bss.usart3_wb
                0x200005a8        0xc C:\Users\Данила Кондрашов\AppData\Local\Temp\VMBuilds\LAB8_NEW\stm32duino_genericSTM32F103C6\Release\core.a(usart_f1.c.o)
 .bss.line_dtr_rts
                0x200005b4        0x1 C:\Users\Данила Кондрашов\AppData\Local\Temp\VMBuilds\LAB8_NEW\stm32duino_genericSTM32F103C6\Release\core.a(usb_cdcacm.c.o)
 *fill*         0x200005b5        0x3 
 .bss.tx_head   0x200005b8        0x4 C:\Users\Данила Кондрашов\AppData\Local\Temp\VMBuilds\LAB8_NEW\stm32duino_genericSTM32F103C6\Release\core.a(usb_cdcacm.c.o)
 .bss.transmitting
                0x200005bc        0x1 C:\Users\Данила Кондрашов\AppData\Local\Temp\VMBuilds\LAB8_NEW\stm32duino_genericSTM32F103C6\Release\core.a(usb_cdcacm.c.o)
 *fill*         0x200005bd        0x3 
 .bss.rx_tail   0x200005c0        0x4 C:\Users\Данила Кондрашов\AppData\Local\Temp\VMBuilds\LAB8_NEW\stm32duino_genericSTM32F103C6\Release\core.a(usb_cdcacm.c.o)
 .bss.iface_setup_hook
                0x200005c4        0x4 C:\Users\Данила Кондрашов\AppData\Local\Temp\VMBuilds\LAB8_NEW\stm32duino_genericSTM32F103C6\Release\core.a(usb_cdcacm.c.o)
 .bss.rx_head   0x200005c8        0x4 C:\Users\Данила Кондрашов\AppData\Local\Temp\VMBuilds\LAB8_NEW\stm32duino_genericSTM32F103C6\Release\core.a(usb_cdcacm.c.o)
 .bss.tx_tail   0x200005cc        0x4 C:\Users\Данила Кондрашов\AppData\Local\Temp\VMBuilds\LAB8_NEW\stm32duino_genericSTM32F103C6\Release\core.a(usb_cdcacm.c.o)
 .bss.Data_Mul_MaxPacketSize
                0x200005d0        0x1 C:\Users\Данила Кондрашов\AppData\Local\Temp\VMBuilds\LAB8_NEW\stm32duino_genericSTM32F103C6\Release\core.a(usb_core.c.o)
                0x200005d0                Data_Mul_MaxPacketSize
 *fill*         0x200005d1        0x1 
 .bss.tone_tcount
                0x200005d2        0x2 C:\Users\Данила Кондрашов\AppData\Local\Temp\VMBuilds\LAB8_NEW\stm32duino_genericSTM32F103C6\Release\core.a(tone.cpp.o)
                0x200005d2                tone_tcount
 .bss.tone_force_ntimer
                0x200005d4        0x1 C:\Users\Данила Кондрашов\AppData\Local\Temp\VMBuilds\LAB8_NEW\stm32duino_genericSTM32F103C6\Release\core.a(tone.cpp.o)
                0x200005d4                tone_force_ntimer
 *fill*         0x200005d5        0x3 
 .bss.tone_timer
                0x200005d8        0x4 C:\Users\Данила Кондрашов\AppData\Local\Temp\VMBuilds\LAB8_NEW\stm32duino_genericSTM32F103C6\Release\core.a(tone.cpp.o)
                0x200005d8                tone_timer
 .bss.tone_rmask
                0x200005dc        0x4 C:\Users\Данила Кондрашов\AppData\Local\Temp\VMBuilds\LAB8_NEW\stm32duino_genericSTM32F103C6\Release\core.a(tone.cpp.o)
                0x200005dc                tone_rmask
 .bss.tone_bsrr
                0x200005e0        0x4 C:\Users\Данила Кондрашов\AppData\Local\Temp\VMBuilds\LAB8_NEW\stm32duino_genericSTM32F103C6\Release\core.a(tone.cpp.o)
                0x200005e0                tone_bsrr
 .bss.TTimer3   0x200005e4        0x4 C:\Users\Данила Кондрашов\AppData\Local\Temp\VMBuilds\LAB8_NEW\stm32duino_genericSTM32F103C6\Release\core.a(tone.cpp.o)
                0x200005e4                TTimer3
 .bss.tone_ncount
                0x200005e8        0x2 C:\Users\Данила Кондрашов\AppData\Local\Temp\VMBuilds\LAB8_NEW\stm32duino_genericSTM32F103C6\Release\core.a(tone.cpp.o)
                0x200005e8                tone_ncount
 *fill*         0x200005ea        0x2 
 .bss.TTimer1   0x200005ec        0x4 C:\Users\Данила Кондрашов\AppData\Local\Temp\VMBuilds\LAB8_NEW\stm32duino_genericSTM32F103C6\Release\core.a(tone.cpp.o)
                0x200005ec                TTimer1
 .bss.tone_next
                0x200005f0        0x4 C:\Users\Данила Кондрашов\AppData\Local\Temp\VMBuilds\LAB8_NEW\stm32duino_genericSTM32F103C6\Release\core.a(tone.cpp.o)
                0x200005f0                tone_next
 .bss.tone_n    0x200005f4        0x2 C:\Users\Данила Кондрашов\AppData\Local\Temp\VMBuilds\LAB8_NEW\stm32duino_genericSTM32F103C6\Release\core.a(tone.cpp.o)
                0x200005f4                tone_n
 *fill*         0x200005f6        0x2 
 .bss.TTimer4   0x200005f8        0x4 C:\Users\Данила Кондрашов\AppData\Local\Temp\VMBuilds\LAB8_NEW\stm32duino_genericSTM32F103C6\Release\core.a(tone.cpp.o)
                0x200005f8                TTimer4
 .bss.tone_nhw  0x200005fc        0x4 C:\Users\Данила Кондрашов\AppData\Local\Temp\VMBuilds\LAB8_NEW\stm32duino_genericSTM32F103C6\Release\core.a(tone.cpp.o)
                0x200005fc                tone_nhw
 .bss.TTimer2   0x20000600        0x4 C:\Users\Данила Кондрашов\AppData\Local\Temp\VMBuilds\LAB8_NEW\stm32duino_genericSTM32F103C6\Release\core.a(tone.cpp.o)
                0x20000600                TTimer2
 .bss.tone_smask
                0x20000604        0x4 C:\Users\Данила Кондрашов\AppData\Local\Temp\VMBuilds\LAB8_NEW\stm32duino_genericSTM32F103C6\Release\core.a(tone.cpp.o)
                0x20000604                tone_smask
 .bss.tone_force_channel
                0x20000608        0x1 C:\Users\Данила Кондрашов\AppData\Local\Temp\VMBuilds\LAB8_NEW\stm32duino_genericSTM32F103C6\Release\core.a(tone.cpp.o)
                0x20000608                tone_force_channel
 *fill*         0x20000609        0x3 
 .bss.Timer1    0x2000060c        0x4 C:\Users\Данила Кондрашов\AppData\Local\Temp\VMBuilds\LAB8_NEW\stm32duino_genericSTM32F103C6\Release\core.a(HardwareTimer.cpp.o)
                0x2000060c                Timer1
 .bss.Timer2    0x20000610        0x4 C:\Users\Данила Кондрашов\AppData\Local\Temp\VMBuilds\LAB8_NEW\stm32duino_genericSTM32F103C6\Release\core.a(HardwareTimer.cpp.o)
                0x20000610                Timer2
 .bss.Timer3    0x20000614        0x4 C:\Users\Данила Кондрашов\AppData\Local\Temp\VMBuilds\LAB8_NEW\stm32duino_genericSTM32F103C6\Release\core.a(HardwareTimer.cpp.o)
                0x20000614                Timer3
 .bss.Timer4    0x20000618        0x4 C:\Users\Данила Кондрашов\AppData\Local\Temp\VMBuilds\LAB8_NEW\stm32duino_genericSTM32F103C6\Release\core.a(HardwareTimer.cpp.o)
                0x20000618                Timer4
 .bss._ZL7this_id
                0x2000061c        0x1 C:\Users\Данила Кондрашов\AppData\Local\Temp\VMBuilds\LAB8_NEW\stm32duino_genericSTM32F103C6\Release\core.a(HardwareTimer.cpp.o)
 *fill*         0x2000061d        0x3 
 .bss._ZL9this_devp
                0x20000620        0x4 C:\Users\Данила Кондрашов\AppData\Local\Temp\VMBuilds\LAB8_NEW\stm32duino_genericSTM32F103C6\Release\core.a(HardwareTimer.cpp.o)
 *(COMMON)
 COMMON         0x20000624        0x4 C:\Users\Данила Кондрашов\AppData\Local\Temp\VMBuilds\LAB8_NEW\stm32duino_genericSTM32F103C6\Release\core.a(systick.c.o)
                0x20000624                systick_uptime_millis
 COMMON         0x20000628        0x6 C:\Users\Данила Кондрашов\AppData\Local\Temp\VMBuilds\LAB8_NEW\stm32duino_genericSTM32F103C6\Release\core.a(usb.c.o)
                0x20000628                SaveRState
                0x2000062a                SaveTState
                0x2000062c                ResumeS
 COMMON         0x2000062e        0x2 C:\Users\Данила Кондрашов\AppData\Local\Temp\VMBuilds\LAB8_NEW\stm32duino_genericSTM32F103C6\Release\core.a(usb_core.c.o)
                0x2000062e                StatusInfo
 COMMON         0x20000630       0x32 C:\Users\Данила Кондрашов\AppData\Local\Temp\VMBuilds\LAB8_NEW\stm32duino_genericSTM32F103C6\Release\core.a(usb_init.c.o)
                0x20000630                SaveState
                0x20000634                pProperty
                0x20000638                EPindex
                0x2000063c                Device_Info
                0x20000658                pUser_Standard_Requests
                0x2000065c                pInformation
                0x20000660                wInterrupt_Mask
                0x20000668                . = ALIGN (0x8)
 *fill*         0x20000662        0x6 
                0x20000668                __bss_end__ = .
                0x20000668                _end = __bss_end__

.stab
 *(.stab)

.stabstr
 *(.stabstr)

.debug
 *(.debug)

.line
 *(.line)

.debug_srcinfo
 *(.debug_srcinfo)

.debug_sfnames
 *(.debug_sfnames)

.debug_aranges  0x00000000     0x1270
 *(.debug_aranges)
 .debug_aranges
                0x00000000       0x30 LAB8_NEW.cpp.o
 .debug_aranges
                0x00000030       0xe8 LM75A_Arduino_library\M2M_LM75A.cpp.o
 .debug_aranges
                0x00000118       0xa0 Wire\SoftWire.cpp.o
 .debug_aranges
                0x000001b8       0x68 Wire\Wire.cpp.o
 .debug_aranges
                0x00000220       0x90 Wire\utility\WireBase.cpp.o
 .debug_aranges
                0x000002b0       0x28 C:\Users\Данила Кондрашов\AppData\Local\Temp\VMBCore\arduino16x\1ff78a0346523d7d91af874899f893a8\variant\board.cpp.o
 .debug_aranges
                0x000002d8       0x40 C:\Users\Данила Кондрашов\AppData\Local\Temp\VMBCore\arduino16x\1ff78a0346523d7d91af874899f893a8\variant\wirish\boards.cpp.o
 .debug_aranges
                0x00000318       0x40 C:\Users\Данила Кондрашов\AppData\Local\Temp\VMBCore\arduino16x\1ff78a0346523d7d91af874899f893a8\variant\wirish\boards_setup.cpp.o
 .debug_aranges
                0x00000358       0x20 C:\Users\Данила Кондрашов\AppData\Local\Temp\VMBCore\arduino16x\1ff78a0346523d7d91af874899f893a8\variant\start.S.o
 .debug_aranges
                0x00000378       0x20 C:\Users\Данила Кондрашов\AppData\Local\Temp\VMBCore\arduino16x\1ff78a0346523d7d91af874899f893a8\variant\start_c.c.o
 .debug_aranges
                0x00000398       0x88 C:\Users\Данила Кондрашов\AppData\Local\Temp\VMBCore\arduino16x\1ff78a0346523d7d91af874899f893a8\variant\syscalls.c.o
 .debug_aranges
                0x00000420       0x20 C:\Users\Данила Кондрашов\AppData\Local\Temp\VMBuilds\LAB8_NEW\stm32duino_genericSTM32F103C6\Release\core.a(exc.S.o)
 .debug_aranges
                0x00000440       0x20 C:\Users\Данила Кондрашов\AppData\Local\Temp\VMBuilds\LAB8_NEW\stm32duino_genericSTM32F103C6\Release\core.a(isrs.S.o)
 .debug_aranges
                0x00000460       0x38 C:\Users\Данила Кондрашов\AppData\Local\Temp\VMBuilds\LAB8_NEW\stm32duino_genericSTM32F103C6\Release\core.a(adc.c.o)
 .debug_aranges
                0x00000498       0x58 C:\Users\Данила Кондрашов\AppData\Local\Temp\VMBuilds\LAB8_NEW\stm32duino_genericSTM32F103C6\Release\core.a(adc_f1.c.o)
 .debug_aranges
                0x000004f0       0xb0 C:\Users\Данила Кондрашов\AppData\Local\Temp\VMBuilds\LAB8_NEW\stm32duino_genericSTM32F103C6\Release\core.a(dma_f1.c.o)
 .debug_aranges
                0x000005a0       0x80 C:\Users\Данила Кондрашов\AppData\Local\Temp\VMBuilds\LAB8_NEW\stm32duino_genericSTM32F103C6\Release\core.a(exti.c.o)
 .debug_aranges
                0x00000620       0x20 C:\Users\Данила Кондрашов\AppData\Local\Temp\VMBuilds\LAB8_NEW\stm32duino_genericSTM32F103C6\Release\core.a(exti_f1.c.o)
 .debug_aranges
                0x00000640       0x20 C:\Users\Данила Кондрашов\AppData\Local\Temp\VMBuilds\LAB8_NEW\stm32duino_genericSTM32F103C6\Release\core.a(flash.c.o)
 .debug_aranges
                0x00000660       0x48 C:\Users\Данила Кондрашов\AppData\Local\Temp\VMBuilds\LAB8_NEW\stm32duino_genericSTM32F103C6\Release\core.a(gpio_f1.c.o)
 .debug_aranges
                0x000006a8       0x88 C:\Users\Данила Кондрашов\AppData\Local\Temp\VMBuilds\LAB8_NEW\stm32duino_genericSTM32F103C6\Release\core.a(i2c.c.o)
 .debug_aranges
                0x00000730       0x50 C:\Users\Данила Кондрашов\AppData\Local\Temp\VMBuilds\LAB8_NEW\stm32duino_genericSTM32F103C6\Release\core.a(i2c_f1.c.o)
 .debug_aranges
                0x00000780       0x38 C:\Users\Данила Кондрашов\AppData\Local\Temp\VMBuilds\LAB8_NEW\stm32duino_genericSTM32F103C6\Release\core.a(nvic.c.o)
 .debug_aranges
                0x000007b8       0x48 C:\Users\Данила Кондрашов\AppData\Local\Temp\VMBuilds\LAB8_NEW\stm32duino_genericSTM32F103C6\Release\core.a(rcc.c.o)
 .debug_aranges
                0x00000800       0x48 C:\Users\Данила Кондрашов\AppData\Local\Temp\VMBuilds\LAB8_NEW\stm32duino_genericSTM32F103C6\Release\core.a(rcc_f1.c.o)
 .debug_aranges
                0x00000848       0x40 C:\Users\Данила Кондрашов\AppData\Local\Temp\VMBuilds\LAB8_NEW\stm32duino_genericSTM32F103C6\Release\core.a(systick.c.o)
 .debug_aranges
                0x00000888       0xb0 C:\Users\Данила Кондрашов\AppData\Local\Temp\VMBuilds\LAB8_NEW\stm32duino_genericSTM32F103C6\Release\core.a(timer.c.o)
 .debug_aranges
                0x00000938       0x50 C:\Users\Данила Кондрашов\AppData\Local\Temp\VMBuilds\LAB8_NEW\stm32duino_genericSTM32F103C6\Release\core.a(usart_f1.c.o)
 .debug_aranges
                0x00000988       0x20 C:\Users\Данила Кондрашов\AppData\Local\Temp\VMBuilds\LAB8_NEW\stm32duino_genericSTM32F103C6\Release\core.a(usart_private.c.o)
 .debug_aranges
                0x000009a8       0x50 C:\Users\Данила Кондрашов\AppData\Local\Temp\VMBuilds\LAB8_NEW\stm32duino_genericSTM32F103C6\Release\core.a(util.c.o)
 .debug_aranges
                0x000009f8       0x38 C:\Users\Данила Кондрашов\AppData\Local\Temp\VMBuilds\LAB8_NEW\stm32duino_genericSTM32F103C6\Release\core.a(usb.c.o)
 .debug_aranges
                0x00000a30      0x128 C:\Users\Данила Кондрашов\AppData\Local\Temp\VMBuilds\LAB8_NEW\stm32duino_genericSTM32F103C6\Release\core.a(usb_cdcacm.c.o)
 .debug_aranges
                0x00000b58       0x20 C:\Users\Данила Кондрашов\AppData\Local\Temp\VMBuilds\LAB8_NEW\stm32duino_genericSTM32F103C6\Release\core.a(usb_reg_map.c.o)
 .debug_aranges
                0x00000b78       0x98 C:\Users\Данила Кондрашов\AppData\Local\Temp\VMBuilds\LAB8_NEW\stm32duino_genericSTM32F103C6\Release\core.a(usb_core.c.o)
 .debug_aranges
                0x00000c10       0x20 C:\Users\Данила Кондрашов\AppData\Local\Temp\VMBuilds\LAB8_NEW\stm32duino_genericSTM32F103C6\Release\core.a(usb_init.c.o)
 .debug_aranges
                0x00000c30       0x28 C:\Users\Данила Кондрашов\AppData\Local\Temp\VMBuilds\LAB8_NEW\stm32duino_genericSTM32F103C6\Release\core.a(usb_mem.c.o)
 .debug_aranges
                0x00000c58      0x1f0 C:\Users\Данила Кондрашов\AppData\Local\Temp\VMBuilds\LAB8_NEW\stm32duino_genericSTM32F103C6\Release\core.a(usb_regs.c.o)
 .debug_aranges
                0x00000e48       0x28 C:\Users\Данила Кондрашов\AppData\Local\Temp\VMBuilds\LAB8_NEW\stm32duino_genericSTM32F103C6\Release\core.a(cxxabi-compat.cpp.o)
 .debug_aranges
                0x00000e70       0x70 C:\Users\Данила Кондрашов\AppData\Local\Temp\VMBuilds\LAB8_NEW\stm32duino_genericSTM32F103C6\Release\core.a(HardwareSerial.cpp.o)
 .debug_aranges
                0x00000ee0       0x28 C:\Users\Данила Кондрашов\AppData\Local\Temp\VMBuilds\LAB8_NEW\stm32duino_genericSTM32F103C6\Release\core.a(main.cpp.o)
 .debug_aranges
                0x00000f08      0x110 C:\Users\Данила Кондрашов\AppData\Local\Temp\VMBuilds\LAB8_NEW\stm32duino_genericSTM32F103C6\Release\core.a(Print.cpp.o)
 .debug_aranges
                0x00001018       0x28 C:\Users\Данила Кондрашов\AppData\Local\Temp\VMBuilds\LAB8_NEW\stm32duino_genericSTM32F103C6\Release\core.a(pwm.cpp.o)
 .debug_aranges
                0x00001040       0x48 C:\Users\Данила Кондрашов\AppData\Local\Temp\VMBuilds\LAB8_NEW\stm32duino_genericSTM32F103C6\Release\core.a(tone.cpp.o)
 .debug_aranges
                0x00001088       0x28 C:\Users\Данила Кондрашов\AppData\Local\Temp\VMBuilds\LAB8_NEW\stm32duino_genericSTM32F103C6\Release\core.a(wirish_digital.cpp.o)
 .debug_aranges
                0x000010b0       0x30 C:\Users\Данила Кондрашов\AppData\Local\Temp\VMBuilds\LAB8_NEW\stm32duino_genericSTM32F103C6\Release\core.a(wirish_time.cpp.o)
 .debug_aranges
                0x000010e0       0x20 C:\Users\Данила Кондрашов\AppData\Local\Temp\VMBuilds\LAB8_NEW\stm32duino_genericSTM32F103C6\Release\core.a(wirish_digital_f1.cpp.o)
 .debug_aranges
                0x00001100       0x20 C:\Users\Данила Кондрашов\AppData\Local\Temp\VMBuilds\LAB8_NEW\stm32duino_genericSTM32F103C6\Release\core.a(hooks.c.o)
 .debug_aranges
                0x00001120       0x28 C:\Users\Данила Кондрашов\AppData\Local\Temp\VMBuilds\LAB8_NEW\stm32duino_genericSTM32F103C6\Release\core.a(dma.c.o)
 .debug_aranges
                0x00001148       0x20 C:\Users\Данила Кондрашов\AppData\Local\Temp\VMBuilds\LAB8_NEW\stm32duino_genericSTM32F103C6\Release\core.a(gpio.c.o)
 .debug_aranges
                0x00001168       0x48 C:\Users\Данила Кондрашов\AppData\Local\Temp\VMBuilds\LAB8_NEW\stm32duino_genericSTM32F103C6\Release\core.a(usart.c.o)
 .debug_aranges
                0x000011b0       0xc0 C:\Users\Данила Кондрашов\AppData\Local\Temp\VMBuilds\LAB8_NEW\stm32duino_genericSTM32F103C6\Release\core.a(HardwareTimer.cpp.o)

.debug_pubnames
 *(.debug_pubnames)

.debug_info     0x00000000    0x25fd4
 *(.debug_info .gnu.linkonce.wi.*)
 .debug_info    0x00000000      0xd95 LAB8_NEW.cpp.o
 .debug_info    0x00000d95     0x170c LM75A_Arduino_library\M2M_LM75A.cpp.o
 .debug_info    0x000024a1     0x19dd Wire\SoftWire.cpp.o
 .debug_info    0x00003e7e      0xd87 Wire\Wire.cpp.o
 .debug_info    0x00004c05      0xf82 Wire\utility\WireBase.cpp.o
 .debug_info    0x00005b87      0xf2e C:\Users\Данила Кондрашов\AppData\Local\Temp\VMBCore\arduino16x\1ff78a0346523d7d91af874899f893a8\variant\board.cpp.o
 .debug_info    0x00006ab5     0x142d C:\Users\Данила Кондрашов\AppData\Local\Temp\VMBCore\arduino16x\1ff78a0346523d7d91af874899f893a8\variant\wirish\boards.cpp.o
 .debug_info    0x00007ee2      0x665 C:\Users\Данила Кондрашов\AppData\Local\Temp\VMBCore\arduino16x\1ff78a0346523d7d91af874899f893a8\variant\wirish\boards_setup.cpp.o
 .debug_info    0x00008547       0xdc C:\Users\Данила Кондрашов\AppData\Local\Temp\VMBCore\arduino16x\1ff78a0346523d7d91af874899f893a8\variant\start.S.o
 .debug_info    0x00008623      0x14d C:\Users\Данила Кондрашов\AppData\Local\Temp\VMBCore\arduino16x\1ff78a0346523d7d91af874899f893a8\variant\start_c.c.o
 .debug_info    0x00008770      0x5cd C:\Users\Данила Кондрашов\AppData\Local\Temp\VMBCore\arduino16x\1ff78a0346523d7d91af874899f893a8\variant\syscalls.c.o
 .debug_info    0x00008d3d       0xcc C:\Users\Данила Кондрашов\AppData\Local\Temp\VMBuilds\LAB8_NEW\stm32duino_genericSTM32F103C6\Release\core.a(exc.S.o)
 .debug_info    0x00008e09       0xe1 C:\Users\Данила Кондрашов\AppData\Local\Temp\VMBuilds\LAB8_NEW\stm32duino_genericSTM32F103C6\Release\core.a(isrs.S.o)
 .debug_info    0x00008eea      0x79a C:\Users\Данила Кондрашов\AppData\Local\Temp\VMBuilds\LAB8_NEW\stm32duino_genericSTM32F103C6\Release\core.a(adc.c.o)
 .debug_info    0x00009684      0xe4a C:\Users\Данила Кондрашов\AppData\Local\Temp\VMBuilds\LAB8_NEW\stm32duino_genericSTM32F103C6\Release\core.a(adc_f1.c.o)
 .debug_info    0x0000a4ce     0x18b1 C:\Users\Данила Кондрашов\AppData\Local\Temp\VMBuilds\LAB8_NEW\stm32duino_genericSTM32F103C6\Release\core.a(dma_f1.c.o)
 .debug_info    0x0000bd7f      0xd3c C:\Users\Данила Кондрашов\AppData\Local\Temp\VMBuilds\LAB8_NEW\stm32duino_genericSTM32F103C6\Release\core.a(exti.c.o)
 .debug_info    0x0000cabb      0x213 C:\Users\Данила Кондрашов\AppData\Local\Temp\VMBuilds\LAB8_NEW\stm32duino_genericSTM32F103C6\Release\core.a(exti_f1.c.o)
 .debug_info    0x0000ccce      0x128 C:\Users\Данила Кондрашов\AppData\Local\Temp\VMBuilds\LAB8_NEW\stm32duino_genericSTM32F103C6\Release\core.a(flash.c.o)
 .debug_info    0x0000cdf6      0x715 C:\Users\Данила Кондрашов\AppData\Local\Temp\VMBuilds\LAB8_NEW\stm32duino_genericSTM32F103C6\Release\core.a(gpio_f1.c.o)
 .debug_info    0x0000d50b     0x1ad2 C:\Users\Данила Кондрашов\AppData\Local\Temp\VMBuilds\LAB8_NEW\stm32duino_genericSTM32F103C6\Release\core.a(i2c.c.o)
 .debug_info    0x0000efdd      0xc25 C:\Users\Данила Кондрашов\AppData\Local\Temp\VMBuilds\LAB8_NEW\stm32duino_genericSTM32F103C6\Release\core.a(i2c_f1.c.o)
 .debug_info    0x0000fc02      0x5a2 C:\Users\Данила Кондрашов\AppData\Local\Temp\VMBuilds\LAB8_NEW\stm32duino_genericSTM32F103C6\Release\core.a(nvic.c.o)
 .debug_info    0x000101a4      0x556 C:\Users\Данила Кондрашов\AppData\Local\Temp\VMBuilds\LAB8_NEW\stm32duino_genericSTM32F103C6\Release\core.a(rcc.c.o)
 .debug_info    0x000106fa      0xb64 C:\Users\Данила Кондрашов\AppData\Local\Temp\VMBuilds\LAB8_NEW\stm32duino_genericSTM32F103C6\Release\core.a(rcc_f1.c.o)
 .debug_info    0x0001125e      0x182 C:\Users\Данила Кондрашов\AppData\Local\Temp\VMBuilds\LAB8_NEW\stm32duino_genericSTM32F103C6\Release\core.a(systick.c.o)
 .debug_info    0x000113e0     0x197d C:\Users\Данила Кондрашов\AppData\Local\Temp\VMBuilds\LAB8_NEW\stm32duino_genericSTM32F103C6\Release\core.a(timer.c.o)
 .debug_info    0x00012d5d      0xb89 C:\Users\Данила Кондрашов\AppData\Local\Temp\VMBuilds\LAB8_NEW\stm32duino_genericSTM32F103C6\Release\core.a(usart_f1.c.o)
 .debug_info    0x000138e6      0x595 C:\Users\Данила Кондрашов\AppData\Local\Temp\VMBuilds\LAB8_NEW\stm32duino_genericSTM32F103C6\Release\core.a(usart_private.c.o)
 .debug_info    0x00013e7b      0xad2 C:\Users\Данила Кондрашов\AppData\Local\Temp\VMBuilds\LAB8_NEW\stm32duino_genericSTM32F103C6\Release\core.a(util.c.o)
 .debug_info    0x0001494d      0xd16 C:\Users\Данила Кондрашов\AppData\Local\Temp\VMBuilds\LAB8_NEW\stm32duino_genericSTM32F103C6\Release\core.a(usb.c.o)
 .debug_info    0x00015663     0x22d2 C:\Users\Данила Кондрашов\AppData\Local\Temp\VMBuilds\LAB8_NEW\stm32duino_genericSTM32F103C6\Release\core.a(usb_cdcacm.c.o)
 .debug_info    0x00017935      0x26c C:\Users\Данила Кондрашов\AppData\Local\Temp\VMBuilds\LAB8_NEW\stm32duino_genericSTM32F103C6\Release\core.a(usb_reg_map.c.o)
 .debug_info    0x00017ba1      0xddf C:\Users\Данила Кондрашов\AppData\Local\Temp\VMBuilds\LAB8_NEW\stm32duino_genericSTM32F103C6\Release\core.a(usb_core.c.o)
 .debug_info    0x00018980      0x3ed C:\Users\Данила Кондрашов\AppData\Local\Temp\VMBuilds\LAB8_NEW\stm32duino_genericSTM32F103C6\Release\core.a(usb_init.c.o)
 .debug_info    0x00018d6d      0x183 C:\Users\Данила Кондрашов\AppData\Local\Temp\VMBuilds\LAB8_NEW\stm32duino_genericSTM32F103C6\Release\core.a(usb_mem.c.o)
 .debug_info    0x00018ef0      0xc88 C:\Users\Данила Кондрашов\AppData\Local\Temp\VMBuilds\LAB8_NEW\stm32duino_genericSTM32F103C6\Release\core.a(usb_regs.c.o)
 .debug_info    0x00019b78      0x526 C:\Users\Данила Кондрашов\AppData\Local\Temp\VMBuilds\LAB8_NEW\stm32duino_genericSTM32F103C6\Release\core.a(cxxabi-compat.cpp.o)
 .debug_info    0x0001a09e     0x29ea C:\Users\Данила Кондрашов\AppData\Local\Temp\VMBuilds\LAB8_NEW\stm32duino_genericSTM32F103C6\Release\core.a(HardwareSerial.cpp.o)
 .debug_info    0x0001ca88       0x99 C:\Users\Данила Кондрашов\AppData\Local\Temp\VMBuilds\LAB8_NEW\stm32duino_genericSTM32F103C6\Release\core.a(main.cpp.o)
 .debug_info    0x0001cb21     0x258c C:\Users\Данила Кондрашов\AppData\Local\Temp\VMBuilds\LAB8_NEW\stm32duino_genericSTM32F103C6\Release\core.a(Print.cpp.o)
 .debug_info    0x0001f0ad      0xbc0 C:\Users\Данила Кондрашов\AppData\Local\Temp\VMBuilds\LAB8_NEW\stm32duino_genericSTM32F103C6\Release\core.a(pwm.cpp.o)
 .debug_info    0x0001fc6d     0x15cd C:\Users\Данила Кондрашов\AppData\Local\Temp\VMBuilds\LAB8_NEW\stm32duino_genericSTM32F103C6\Release\core.a(tone.cpp.o)
 .debug_info    0x0002123a      0xb0b C:\Users\Данила Кондрашов\AppData\Local\Temp\VMBuilds\LAB8_NEW\stm32duino_genericSTM32F103C6\Release\core.a(wirish_digital.cpp.o)
 .debug_info    0x00021d45      0x2be C:\Users\Данила Кондрашов\AppData\Local\Temp\VMBuilds\LAB8_NEW\stm32duino_genericSTM32F103C6\Release\core.a(wirish_time.cpp.o)
 .debug_info    0x00022003      0xc8a C:\Users\Данила Кондрашов\AppData\Local\Temp\VMBuilds\LAB8_NEW\stm32duino_genericSTM32F103C6\Release\core.a(wirish_digital_f1.cpp.o)
 .debug_info    0x00022c8d       0x33 C:\Users\Данила Кондрашов\AppData\Local\Temp\VMBuilds\LAB8_NEW\stm32duino_genericSTM32F103C6\Release\core.a(hooks.c.o)
 .debug_info    0x00022cc0      0x6f7 C:\Users\Данила Кондрашов\AppData\Local\Temp\VMBuilds\LAB8_NEW\stm32duino_genericSTM32F103C6\Release\core.a(dma.c.o)
 .debug_info    0x000233b7      0x313 C:\Users\Данила Кондрашов\AppData\Local\Temp\VMBuilds\LAB8_NEW\stm32duino_genericSTM32F103C6\Release\core.a(gpio.c.o)
 .debug_info    0x000236ca      0xc32 C:\Users\Данила Кондрашов\AppData\Local\Temp\VMBuilds\LAB8_NEW\stm32duino_genericSTM32F103C6\Release\core.a(usart.c.o)
 .debug_info    0x000242fc     0x1cd8 C:\Users\Данила Кондрашов\AppData\Local\Temp\VMBuilds\LAB8_NEW\stm32duino_genericSTM32F103C6\Release\core.a(HardwareTimer.cpp.o)

.debug_abbrev   0x00000000     0x7290
 *(.debug_abbrev)
 .debug_abbrev  0x00000000      0x303 LAB8_NEW.cpp.o
 .debug_abbrev  0x00000303      0x340 LM75A_Arduino_library\M2M_LM75A.cpp.o
 .debug_abbrev  0x00000643      0x431 Wire\SoftWire.cpp.o
 .debug_abbrev  0x00000a74      0x3ac Wire\Wire.cpp.o
 .debug_abbrev  0x00000e20      0x320 Wire\utility\WireBase.cpp.o
 .debug_abbrev  0x00001140      0x1ea C:\Users\Данила Кондрашов\AppData\Local\Temp\VMBCore\arduino16x\1ff78a0346523d7d91af874899f893a8\variant\board.cpp.o
 .debug_abbrev  0x0000132a      0x3dd C:\Users\Данила Кондрашов\AppData\Local\Temp\VMBCore\arduino16x\1ff78a0346523d7d91af874899f893a8\variant\wirish\boards.cpp.o
 .debug_abbrev  0x00001707      0x196 C:\Users\Данила Кондрашов\AppData\Local\Temp\VMBCore\arduino16x\1ff78a0346523d7d91af874899f893a8\variant\wirish\boards_setup.cpp.o
 .debug_abbrev  0x0000189d       0x14 C:\Users\Данила Кондрашов\AppData\Local\Temp\VMBCore\arduino16x\1ff78a0346523d7d91af874899f893a8\variant\start.S.o
 .debug_abbrev  0x000018b1       0xfd C:\Users\Данила Кондрашов\AppData\Local\Temp\VMBCore\arduino16x\1ff78a0346523d7d91af874899f893a8\variant\start_c.c.o
 .debug_abbrev  0x000019ae      0x17e C:\Users\Данила Кондрашов\AppData\Local\Temp\VMBCore\arduino16x\1ff78a0346523d7d91af874899f893a8\variant\syscalls.c.o
 .debug_abbrev  0x00001b2c       0x14 C:\Users\Данила Кондрашов\AppData\Local\Temp\VMBuilds\LAB8_NEW\stm32duino_genericSTM32F103C6\Release\core.a(exc.S.o)
 .debug_abbrev  0x00001b40       0x14 C:\Users\Данила Кондрашов\AppData\Local\Temp\VMBuilds\LAB8_NEW\stm32duino_genericSTM32F103C6\Release\core.a(isrs.S.o)
 .debug_abbrev  0x00001b54      0x20b C:\Users\Данила Кондрашов\AppData\Local\Temp\VMBuilds\LAB8_NEW\stm32duino_genericSTM32F103C6\Release\core.a(adc.c.o)
 .debug_abbrev  0x00001d5f      0x2e6 C:\Users\Данила Кондрашов\AppData\Local\Temp\VMBuilds\LAB8_NEW\stm32duino_genericSTM32F103C6\Release\core.a(adc_f1.c.o)
 .debug_abbrev  0x00002045      0x3e9 C:\Users\Данила Кондрашов\AppData\Local\Temp\VMBuilds\LAB8_NEW\stm32duino_genericSTM32F103C6\Release\core.a(dma_f1.c.o)
 .debug_abbrev  0x0000242e      0x286 C:\Users\Данила Кондрашов\AppData\Local\Temp\VMBuilds\LAB8_NEW\stm32duino_genericSTM32F103C6\Release\core.a(exti.c.o)
 .debug_abbrev  0x000026b4       0xdb C:\Users\Данила Кондрашов\AppData\Local\Temp\VMBuilds\LAB8_NEW\stm32duino_genericSTM32F103C6\Release\core.a(exti_f1.c.o)
 .debug_abbrev  0x0000278f       0x9f C:\Users\Данила Кондрашов\AppData\Local\Temp\VMBuilds\LAB8_NEW\stm32duino_genericSTM32F103C6\Release\core.a(flash.c.o)
 .debug_abbrev  0x0000282e      0x191 C:\Users\Данила Кондрашов\AppData\Local\Temp\VMBuilds\LAB8_NEW\stm32duino_genericSTM32F103C6\Release\core.a(gpio_f1.c.o)
 .debug_abbrev  0x000029bf      0x42d C:\Users\Данила Кондрашов\AppData\Local\Temp\VMBuilds\LAB8_NEW\stm32duino_genericSTM32F103C6\Release\core.a(i2c.c.o)
 .debug_abbrev  0x00002dec      0x20b C:\Users\Данила Кондрашов\AppData\Local\Temp\VMBuilds\LAB8_NEW\stm32duino_genericSTM32F103C6\Release\core.a(i2c_f1.c.o)
 .debug_abbrev  0x00002ff7      0x1ac C:\Users\Данила Кондрашов\AppData\Local\Temp\VMBuilds\LAB8_NEW\stm32duino_genericSTM32F103C6\Release\core.a(nvic.c.o)
 .debug_abbrev  0x000031a3      0x17f C:\Users\Данила Кондрашов\AppData\Local\Temp\VMBuilds\LAB8_NEW\stm32duino_genericSTM32F103C6\Release\core.a(rcc.c.o)
 .debug_abbrev  0x00003322      0x28c C:\Users\Данила Кондрашов\AppData\Local\Temp\VMBuilds\LAB8_NEW\stm32duino_genericSTM32F103C6\Release\core.a(rcc_f1.c.o)
 .debug_abbrev  0x000035ae      0x10f C:\Users\Данила Кондрашов\AppData\Local\Temp\VMBuilds\LAB8_NEW\stm32duino_genericSTM32F103C6\Release\core.a(systick.c.o)
 .debug_abbrev  0x000036bd      0x4c8 C:\Users\Данила Кондрашов\AppData\Local\Temp\VMBuilds\LAB8_NEW\stm32duino_genericSTM32F103C6\Release\core.a(timer.c.o)
 .debug_abbrev  0x00003b85      0x2ad C:\Users\Данила Кондрашов\AppData\Local\Temp\VMBuilds\LAB8_NEW\stm32duino_genericSTM32F103C6\Release\core.a(usart_f1.c.o)
 .debug_abbrev  0x00003e32      0x144 C:\Users\Данила Кондрашов\AppData\Local\Temp\VMBuilds\LAB8_NEW\stm32duino_genericSTM32F103C6\Release\core.a(usart_private.c.o)
 .debug_abbrev  0x00003f76      0x2cb C:\Users\Данила Кондрашов\AppData\Local\Temp\VMBuilds\LAB8_NEW\stm32duino_genericSTM32F103C6\Release\core.a(util.c.o)
 .debug_abbrev  0x00004241      0x352 C:\Users\Данила Кондрашов\AppData\Local\Temp\VMBuilds\LAB8_NEW\stm32duino_genericSTM32F103C6\Release\core.a(usb.c.o)
 .debug_abbrev  0x00004593      0x47d C:\Users\Данила Кондрашов\AppData\Local\Temp\VMBuilds\LAB8_NEW\stm32duino_genericSTM32F103C6\Release\core.a(usb_cdcacm.c.o)
 .debug_abbrev  0x00004a10      0x193 C:\Users\Данила Кондрашов\AppData\Local\Temp\VMBuilds\LAB8_NEW\stm32duino_genericSTM32F103C6\Release\core.a(usb_reg_map.c.o)
 .debug_abbrev  0x00004ba3      0x3a6 C:\Users\Данила Кондрашов\AppData\Local\Temp\VMBuilds\LAB8_NEW\stm32duino_genericSTM32F103C6\Release\core.a(usb_core.c.o)
 .debug_abbrev  0x00004f49      0x101 C:\Users\Данила Кондрашов\AppData\Local\Temp\VMBuilds\LAB8_NEW\stm32duino_genericSTM32F103C6\Release\core.a(usb_init.c.o)
 .debug_abbrev  0x0000504a       0xa6 C:\Users\Данила Кондрашов\AppData\Local\Temp\VMBuilds\LAB8_NEW\stm32duino_genericSTM32F103C6\Release\core.a(usb_mem.c.o)
 .debug_abbrev  0x000050f0      0x1f3 C:\Users\Данила Кондрашов\AppData\Local\Temp\VMBuilds\LAB8_NEW\stm32duino_genericSTM32F103C6\Release\core.a(usb_regs.c.o)
 .debug_abbrev  0x000052e3      0x163 C:\Users\Данила Кондрашов\AppData\Local\Temp\VMBuilds\LAB8_NEW\stm32duino_genericSTM32F103C6\Release\core.a(cxxabi-compat.cpp.o)
 .debug_abbrev  0x00005446      0x535 C:\Users\Данила Кондрашов\AppData\Local\Temp\VMBuilds\LAB8_NEW\stm32duino_genericSTM32F103C6\Release\core.a(HardwareSerial.cpp.o)
 .debug_abbrev  0x0000597b       0x7b C:\Users\Данила Кондрашов\AppData\Local\Temp\VMBuilds\LAB8_NEW\stm32duino_genericSTM32F103C6\Release\core.a(main.cpp.o)
 .debug_abbrev  0x000059f6      0x414 C:\Users\Данила Кондрашов\AppData\Local\Temp\VMBuilds\LAB8_NEW\stm32duino_genericSTM32F103C6\Release\core.a(Print.cpp.o)
 .debug_abbrev  0x00005e0a      0x20f C:\Users\Данила Кондрашов\AppData\Local\Temp\VMBuilds\LAB8_NEW\stm32duino_genericSTM32F103C6\Release\core.a(pwm.cpp.o)
 .debug_abbrev  0x00006019      0x324 C:\Users\Данила Кондрашов\AppData\Local\Temp\VMBuilds\LAB8_NEW\stm32duino_genericSTM32F103C6\Release\core.a(tone.cpp.o)
 .debug_abbrev  0x0000633d      0x17e C:\Users\Данила Кондрашов\AppData\Local\Temp\VMBuilds\LAB8_NEW\stm32duino_genericSTM32F103C6\Release\core.a(wirish_digital.cpp.o)
 .debug_abbrev  0x000064bb      0x187 C:\Users\Данила Кондрашов\AppData\Local\Temp\VMBuilds\LAB8_NEW\stm32duino_genericSTM32F103C6\Release\core.a(wirish_time.cpp.o)
 .debug_abbrev  0x00006642      0x240 C:\Users\Данила Кондрашов\AppData\Local\Temp\VMBuilds\LAB8_NEW\stm32duino_genericSTM32F103C6\Release\core.a(wirish_digital_f1.cpp.o)
 .debug_abbrev  0x00006882       0x26 C:\Users\Данила Кондрашов\AppData\Local\Temp\VMBuilds\LAB8_NEW\stm32duino_genericSTM32F103C6\Release\core.a(hooks.c.o)
 .debug_abbrev  0x000068a8      0x182 C:\Users\Данила Кондрашов\AppData\Local\Temp\VMBuilds\LAB8_NEW\stm32duino_genericSTM32F103C6\Release\core.a(dma.c.o)
 .debug_abbrev  0x00006a2a      0x113 C:\Users\Данила Кондрашов\AppData\Local\Temp\VMBuilds\LAB8_NEW\stm32duino_genericSTM32F103C6\Release\core.a(gpio.c.o)
 .debug_abbrev  0x00006b3d      0x2ff C:\Users\Данила Кондрашов\AppData\Local\Temp\VMBuilds\LAB8_NEW\stm32duino_genericSTM32F103C6\Release\core.a(usart.c.o)
 .debug_abbrev  0x00006e3c      0x454 C:\Users\Данила Кондрашов\AppData\Local\Temp\VMBuilds\LAB8_NEW\stm32duino_genericSTM32F103C6\Release\core.a(HardwareTimer.cpp.o)

.debug_line     0x00000000     0xd3f3
 *(.debug_line)
 .debug_line    0x00000000      0x57a LAB8_NEW.cpp.o
 .debug_line    0x0000057a      0x7e7 LM75A_Arduino_library\M2M_LM75A.cpp.o
 .debug_line    0x00000d61      0x741 Wire\SoftWire.cpp.o
 .debug_line    0x000014a2      0x54a Wire\Wire.cpp.o
 .debug_line    0x000019ec      0x651 Wire\utility\WireBase.cpp.o
 .debug_line    0x0000203d      0x4a5 C:\Users\Данила Кондрашов\AppData\Local\Temp\VMBCore\arduino16x\1ff78a0346523d7d91af874899f893a8\variant\board.cpp.o
 .debug_line    0x000024e2      0x511 C:\Users\Данила Кондрашов\AppData\Local\Temp\VMBCore\arduino16x\1ff78a0346523d7d91af874899f893a8\variant\wirish\boards.cpp.o
 .debug_line    0x000029f3      0x400 C:\Users\Данила Кондрашов\AppData\Local\Temp\VMBCore\arduino16x\1ff78a0346523d7d91af874899f893a8\variant\wirish\boards_setup.cpp.o
 .debug_line    0x00002df3       0xc0 C:\Users\Данила Кондрашов\AppData\Local\Temp\VMBCore\arduino16x\1ff78a0346523d7d91af874899f893a8\variant\start.S.o
 .debug_line    0x00002eb3       0xce C:\Users\Данила Кондрашов\AppData\Local\Temp\VMBCore\arduino16x\1ff78a0346523d7d91af874899f893a8\variant\start_c.c.o
 .debug_line    0x00002f81      0x32c C:\Users\Данила Кондрашов\AppData\Local\Temp\VMBCore\arduino16x\1ff78a0346523d7d91af874899f893a8\variant\syscalls.c.o
 .debug_line    0x000032ad       0xc3 C:\Users\Данила Кондрашов\AppData\Local\Temp\VMBuilds\LAB8_NEW\stm32duino_genericSTM32F103C6\Release\core.a(exc.S.o)
 .debug_line    0x00003370       0xc0 C:\Users\Данила Кондрашов\AppData\Local\Temp\VMBuilds\LAB8_NEW\stm32duino_genericSTM32F103C6\Release\core.a(isrs.S.o)
 .debug_line    0x00003430      0x37c C:\Users\Данила Кондрашов\AppData\Local\Temp\VMBuilds\LAB8_NEW\stm32duino_genericSTM32F103C6\Release\core.a(adc.c.o)
 .debug_line    0x000037ac      0x428 C:\Users\Данила Кондрашов\AppData\Local\Temp\VMBuilds\LAB8_NEW\stm32duino_genericSTM32F103C6\Release\core.a(adc_f1.c.o)
 .debug_line    0x00003bd4      0x6b9 C:\Users\Данила Кондрашов\AppData\Local\Temp\VMBuilds\LAB8_NEW\stm32duino_genericSTM32F103C6\Release\core.a(dma_f1.c.o)
 .debug_line    0x0000428d      0x455 C:\Users\Данила Кондрашов\AppData\Local\Temp\VMBuilds\LAB8_NEW\stm32duino_genericSTM32F103C6\Release\core.a(exti.c.o)
 .debug_line    0x000046e2      0x38a C:\Users\Данила Кондрашов\AppData\Local\Temp\VMBuilds\LAB8_NEW\stm32duino_genericSTM32F103C6\Release\core.a(exti_f1.c.o)
 .debug_line    0x00004a6c      0x2fe C:\Users\Данила Кондрашов\AppData\Local\Temp\VMBuilds\LAB8_NEW\stm32duino_genericSTM32F103C6\Release\core.a(flash.c.o)
 .debug_line    0x00004d6a      0x3a7 C:\Users\Данила Кондрашов\AppData\Local\Temp\VMBuilds\LAB8_NEW\stm32duino_genericSTM32F103C6\Release\core.a(gpio_f1.c.o)
 .debug_line    0x00005111      0x95a C:\Users\Данила Кондрашов\AppData\Local\Temp\VMBuilds\LAB8_NEW\stm32duino_genericSTM32F103C6\Release\core.a(i2c.c.o)
 .debug_line    0x00005a6b      0x497 C:\Users\Данила Кондрашов\AppData\Local\Temp\VMBuilds\LAB8_NEW\stm32duino_genericSTM32F103C6\Release\core.a(i2c_f1.c.o)
 .debug_line    0x00005f02      0x366 C:\Users\Данила Кондрашов\AppData\Local\Temp\VMBuilds\LAB8_NEW\stm32duino_genericSTM32F103C6\Release\core.a(nvic.c.o)
 .debug_line    0x00006268      0x40b C:\Users\Данила Кондрашов\AppData\Local\Temp\VMBuilds\LAB8_NEW\stm32duino_genericSTM32F103C6\Release\core.a(rcc.c.o)
 .debug_line    0x00006673      0x458 C:\Users\Данила Кондрашов\AppData\Local\Temp\VMBuilds\LAB8_NEW\stm32duino_genericSTM32F103C6\Release\core.a(rcc_f1.c.o)
 .debug_line    0x00006acb      0x2c4 C:\Users\Данила Кондрашов\AppData\Local\Temp\VMBuilds\LAB8_NEW\stm32duino_genericSTM32F103C6\Release\core.a(systick.c.o)
 .debug_line    0x00006d8f      0x66b C:\Users\Данила Кондрашов\AppData\Local\Temp\VMBuilds\LAB8_NEW\stm32duino_genericSTM32F103C6\Release\core.a(timer.c.o)
 .debug_line    0x000073fa      0x4a8 C:\Users\Данила Кондрашов\AppData\Local\Temp\VMBuilds\LAB8_NEW\stm32duino_genericSTM32F103C6\Release\core.a(usart_f1.c.o)
 .debug_line    0x000078a2      0x33a C:\Users\Данила Кондрашов\AppData\Local\Temp\VMBuilds\LAB8_NEW\stm32duino_genericSTM32F103C6\Release\core.a(usart_private.c.o)
 .debug_line    0x00007bdc      0x402 C:\Users\Данила Кондрашов\AppData\Local\Temp\VMBuilds\LAB8_NEW\stm32duino_genericSTM32F103C6\Release\core.a(util.c.o)
 .debug_line    0x00007fde      0x58a C:\Users\Данила Кондрашов\AppData\Local\Temp\VMBuilds\LAB8_NEW\stm32duino_genericSTM32F103C6\Release\core.a(usb.c.o)
 .debug_line    0x00008568      0x994 C:\Users\Данила Кондрашов\AppData\Local\Temp\VMBuilds\LAB8_NEW\stm32duino_genericSTM32F103C6\Release\core.a(usb_cdcacm.c.o)
 .debug_line    0x00008efc      0x331 C:\Users\Данила Кондрашов\AppData\Local\Temp\VMBuilds\LAB8_NEW\stm32duino_genericSTM32F103C6\Release\core.a(usb_reg_map.c.o)
 .debug_line    0x0000922d      0x449 C:\Users\Данила Кондрашов\AppData\Local\Temp\VMBuilds\LAB8_NEW\stm32duino_genericSTM32F103C6\Release\core.a(usb_core.c.o)
 .debug_line    0x00009676      0x15e C:\Users\Данила Кондрашов\AppData\Local\Temp\VMBuilds\LAB8_NEW\stm32duino_genericSTM32F103C6\Release\core.a(usb_init.c.o)
 .debug_line    0x000097d4      0x198 C:\Users\Данила Кондрашов\AppData\Local\Temp\VMBuilds\LAB8_NEW\stm32duino_genericSTM32F103C6\Release\core.a(usb_mem.c.o)
 .debug_line    0x0000996c      0x5c2 C:\Users\Данила Кондрашов\AppData\Local\Temp\VMBuilds\LAB8_NEW\stm32duino_genericSTM32F103C6\Release\core.a(usb_regs.c.o)
 .debug_line    0x00009f2e      0x299 C:\Users\Данила Кондрашов\AppData\Local\Temp\VMBuilds\LAB8_NEW\stm32duino_genericSTM32F103C6\Release\core.a(cxxabi-compat.cpp.o)
 .debug_line    0x0000a1c7      0x59f C:\Users\Данила Кондрашов\AppData\Local\Temp\VMBuilds\LAB8_NEW\stm32duino_genericSTM32F103C6\Release\core.a(HardwareSerial.cpp.o)
 .debug_line    0x0000a766       0xbb C:\Users\Данила Кондрашов\AppData\Local\Temp\VMBuilds\LAB8_NEW\stm32duino_genericSTM32F103C6\Release\core.a(main.cpp.o)
 .debug_line    0x0000a821      0x601 C:\Users\Данила Кондрашов\AppData\Local\Temp\VMBuilds\LAB8_NEW\stm32duino_genericSTM32F103C6\Release\core.a(Print.cpp.o)
 .debug_line    0x0000ae22      0x37b C:\Users\Данила Кондрашов\AppData\Local\Temp\VMBuilds\LAB8_NEW\stm32duino_genericSTM32F103C6\Release\core.a(pwm.cpp.o)
 .debug_line    0x0000b19d      0x4df C:\Users\Данила Кондрашов\AppData\Local\Temp\VMBuilds\LAB8_NEW\stm32duino_genericSTM32F103C6\Release\core.a(tone.cpp.o)
 .debug_line    0x0000b67c      0x3b0 C:\Users\Данила Кондрашов\AppData\Local\Temp\VMBuilds\LAB8_NEW\stm32duino_genericSTM32F103C6\Release\core.a(wirish_digital.cpp.o)
 .debug_line    0x0000ba2c      0x394 C:\Users\Данила Кондрашов\AppData\Local\Temp\VMBuilds\LAB8_NEW\stm32duino_genericSTM32F103C6\Release\core.a(wirish_time.cpp.o)
 .debug_line    0x0000bdc0      0x438 C:\Users\Данила Кондрашов\AppData\Local\Temp\VMBuilds\LAB8_NEW\stm32duino_genericSTM32F103C6\Release\core.a(wirish_digital_f1.cpp.o)
 .debug_line    0x0000c1f8       0xa4 C:\Users\Данила Кондрашов\AppData\Local\Temp\VMBuilds\LAB8_NEW\stm32duino_genericSTM32F103C6\Release\core.a(hooks.c.o)
 .debug_line    0x0000c29c      0x3d4 C:\Users\Данила Кондрашов\AppData\Local\Temp\VMBuilds\LAB8_NEW\stm32duino_genericSTM32F103C6\Release\core.a(dma.c.o)
 .debug_line    0x0000c670      0x323 C:\Users\Данила Кондрашов\AppData\Local\Temp\VMBuilds\LAB8_NEW\stm32duino_genericSTM32F103C6\Release\core.a(gpio.c.o)
 .debug_line    0x0000c993      0x494 C:\Users\Данила Кондрашов\AppData\Local\Temp\VMBuilds\LAB8_NEW\stm32duino_genericSTM32F103C6\Release\core.a(usart.c.o)
 .debug_line    0x0000ce27      0x5cc C:\Users\Данила Кондрашов\AppData\Local\Temp\VMBuilds\LAB8_NEW\stm32duino_genericSTM32F103C6\Release\core.a(HardwareTimer.cpp.o)

.debug_frame    0x00000000     0x290c
 *(.debug_frame)
 .debug_frame   0x00000000       0x5c LAB8_NEW.cpp.o
 .debug_frame   0x0000005c      0x288 LM75A_Arduino_library\M2M_LM75A.cpp.o
 .debug_frame   0x000002e4      0x1ac Wire\SoftWire.cpp.o
 .debug_frame   0x00000490       0xe4 Wire\Wire.cpp.o
 .debug_frame   0x00000574      0x130 Wire\utility\WireBase.cpp.o
 .debug_frame   0x000006a4       0x38 C:\Users\Данила Кондрашов\AppData\Local\Temp\VMBCore\arduino16x\1ff78a0346523d7d91af874899f893a8\variant\board.cpp.o
 .debug_frame   0x000006dc       0x84 C:\Users\Данила Кондрашов\AppData\Local\Temp\VMBCore\arduino16x\1ff78a0346523d7d91af874899f893a8\variant\wirish\boards.cpp.o
 .debug_frame   0x00000760       0x68 C:\Users\Данила Кондрашов\AppData\Local\Temp\VMBCore\arduino16x\1ff78a0346523d7d91af874899f893a8\variant\wirish\boards_setup.cpp.o
 .debug_frame   0x000007c8       0x28 C:\Users\Данила Кондрашов\AppData\Local\Temp\VMBCore\arduino16x\1ff78a0346523d7d91af874899f893a8\variant\start_c.c.o
 .debug_frame   0x000007f0      0x130 C:\Users\Данила Кондрашов\AppData\Local\Temp\VMBCore\arduino16x\1ff78a0346523d7d91af874899f893a8\variant\syscalls.c.o
 .debug_frame   0x00000920       0x64 C:\Users\Данила Кондрашов\AppData\Local\Temp\VMBuilds\LAB8_NEW\stm32duino_genericSTM32F103C6\Release\core.a(adc.c.o)
 .debug_frame   0x00000984       0xb4 C:\Users\Данила Кондрашов\AppData\Local\Temp\VMBuilds\LAB8_NEW\stm32duino_genericSTM32F103C6\Release\core.a(adc_f1.c.o)
 .debug_frame   0x00000a38      0x190 C:\Users\Данила Кондрашов\AppData\Local\Temp\VMBuilds\LAB8_NEW\stm32duino_genericSTM32F103C6\Release\core.a(dma_f1.c.o)
 .debug_frame   0x00000bc8      0x11c C:\Users\Данила Кондрашов\AppData\Local\Temp\VMBuilds\LAB8_NEW\stm32duino_genericSTM32F103C6\Release\core.a(exti.c.o)
 .debug_frame   0x00000ce4       0x20 C:\Users\Данила Кондрашов\AppData\Local\Temp\VMBuilds\LAB8_NEW\stm32duino_genericSTM32F103C6\Release\core.a(exti_f1.c.o)
 .debug_frame   0x00000d04       0x20 C:\Users\Данила Кондрашов\AppData\Local\Temp\VMBuilds\LAB8_NEW\stm32duino_genericSTM32F103C6\Release\core.a(flash.c.o)
 .debug_frame   0x00000d24       0x8c C:\Users\Данила Кондрашов\AppData\Local\Temp\VMBuilds\LAB8_NEW\stm32duino_genericSTM32F103C6\Release\core.a(gpio_f1.c.o)
 .debug_frame   0x00000db0      0x14c C:\Users\Данила Кондрашов\AppData\Local\Temp\VMBuilds\LAB8_NEW\stm32duino_genericSTM32F103C6\Release\core.a(i2c.c.o)
 .debug_frame   0x00000efc       0x94 C:\Users\Данила Кондрашов\AppData\Local\Temp\VMBuilds\LAB8_NEW\stm32duino_genericSTM32F103C6\Release\core.a(i2c_f1.c.o)
 .debug_frame   0x00000f90       0x5c C:\Users\Данила Кондрашов\AppData\Local\Temp\VMBuilds\LAB8_NEW\stm32duino_genericSTM32F103C6\Release\core.a(nvic.c.o)
 .debug_frame   0x00000fec       0x70 C:\Users\Данила Кондрашов\AppData\Local\Temp\VMBuilds\LAB8_NEW\stm32duino_genericSTM32F103C6\Release\core.a(rcc.c.o)
 .debug_frame   0x0000105c       0x98 C:\Users\Данила Кондрашов\AppData\Local\Temp\VMBuilds\LAB8_NEW\stm32duino_genericSTM32F103C6\Release\core.a(rcc_f1.c.o)
 .debug_frame   0x000010f4       0x68 C:\Users\Данила Кондрашов\AppData\Local\Temp\VMBuilds\LAB8_NEW\stm32duino_genericSTM32F103C6\Release\core.a(systick.c.o)
 .debug_frame   0x0000115c      0x1c0 C:\Users\Данила Кондрашов\AppData\Local\Temp\VMBuilds\LAB8_NEW\stm32duino_genericSTM32F103C6\Release\core.a(timer.c.o)
 .debug_frame   0x0000131c       0xac C:\Users\Данила Кондрашов\AppData\Local\Temp\VMBuilds\LAB8_NEW\stm32duino_genericSTM32F103C6\Release\core.a(usart_f1.c.o)
 .debug_frame   0x000013c8       0x28 C:\Users\Данила Кондрашов\AppData\Local\Temp\VMBuilds\LAB8_NEW\stm32duino_genericSTM32F103C6\Release\core.a(usart_private.c.o)
 .debug_frame   0x000013f0       0xc8 C:\Users\Данила Кондрашов\AppData\Local\Temp\VMBuilds\LAB8_NEW\stm32duino_genericSTM32F103C6\Release\core.a(util.c.o)
 .debug_frame   0x000014b8       0x6c C:\Users\Данила Кондрашов\AppData\Local\Temp\VMBuilds\LAB8_NEW\stm32duino_genericSTM32F103C6\Release\core.a(usb.c.o)
 .debug_frame   0x00001524      0x2c8 C:\Users\Данила Кондрашов\AppData\Local\Temp\VMBuilds\LAB8_NEW\stm32duino_genericSTM32F103C6\Release\core.a(usb_cdcacm.c.o)
 .debug_frame   0x000017ec       0x20 C:\Users\Данила Кондрашов\AppData\Local\Temp\VMBuilds\LAB8_NEW\stm32duino_genericSTM32F103C6\Release\core.a(usb_reg_map.c.o)
 .debug_frame   0x0000180c      0x1ac C:\Users\Данила Кондрашов\AppData\Local\Temp\VMBuilds\LAB8_NEW\stm32duino_genericSTM32F103C6\Release\core.a(usb_core.c.o)
 .debug_frame   0x000019b8       0x28 C:\Users\Данила Кондрашов\AppData\Local\Temp\VMBuilds\LAB8_NEW\stm32duino_genericSTM32F103C6\Release\core.a(usb_init.c.o)
 .debug_frame   0x000019e0       0x4c C:\Users\Данила Кондрашов\AppData\Local\Temp\VMBuilds\LAB8_NEW\stm32duino_genericSTM32F103C6\Release\core.a(usb_mem.c.o)
 .debug_frame   0x00001a2c      0x3d0 C:\Users\Данила Кондрашов\AppData\Local\Temp\VMBuilds\LAB8_NEW\stm32duino_genericSTM32F103C6\Release\core.a(usb_regs.c.o)
 .debug_frame   0x00001dfc       0x38 C:\Users\Данила Кондрашов\AppData\Local\Temp\VMBuilds\LAB8_NEW\stm32duino_genericSTM32F103C6\Release\core.a(cxxabi-compat.cpp.o)
 .debug_frame   0x00001e34      0x10c C:\Users\Данила Кондрашов\AppData\Local\Temp\VMBuilds\LAB8_NEW\stm32duino_genericSTM32F103C6\Release\core.a(HardwareSerial.cpp.o)
 .debug_frame   0x00001f40       0x38 C:\Users\Данила Кондрашов\AppData\Local\Temp\VMBuilds\LAB8_NEW\stm32duino_genericSTM32F103C6\Release\core.a(main.cpp.o)
 .debug_frame   0x00001f78      0x378 C:\Users\Данила Кондрашов\AppData\Local\Temp\VMBuilds\LAB8_NEW\stm32duino_genericSTM32F103C6\Release\core.a(Print.cpp.o)
 .debug_frame   0x000022f0       0x3c C:\Users\Данила Кондрашов\AppData\Local\Temp\VMBuilds\LAB8_NEW\stm32duino_genericSTM32F103C6\Release\core.a(pwm.cpp.o)
 .debug_frame   0x0000232c       0xa4 C:\Users\Данила Кондрашов\AppData\Local\Temp\VMBuilds\LAB8_NEW\stm32duino_genericSTM32F103C6\Release\core.a(tone.cpp.o)
 .debug_frame   0x000023d0       0x30 C:\Users\Данила Кондрашов\AppData\Local\Temp\VMBuilds\LAB8_NEW\stm32duino_genericSTM32F103C6\Release\core.a(wirish_digital.cpp.o)
 .debug_frame   0x00002400       0x4c C:\Users\Данила Кондрашов\AppData\Local\Temp\VMBuilds\LAB8_NEW\stm32duino_genericSTM32F103C6\Release\core.a(wirish_time.cpp.o)
 .debug_frame   0x0000244c       0x2c C:\Users\Данила Кондрашов\AppData\Local\Temp\VMBuilds\LAB8_NEW\stm32duino_genericSTM32F103C6\Release\core.a(wirish_digital_f1.cpp.o)
 .debug_frame   0x00002478       0x20 C:\Users\Данила Кондрашов\AppData\Local\Temp\VMBuilds\LAB8_NEW\stm32duino_genericSTM32F103C6\Release\core.a(hooks.c.o)
 .debug_frame   0x00002498       0x30 C:\Users\Данила Кондрашов\AppData\Local\Temp\VMBuilds\LAB8_NEW\stm32duino_genericSTM32F103C6\Release\core.a(dma.c.o)
 .debug_frame   0x000024c8       0x28 C:\Users\Данила Кондрашов\AppData\Local\Temp\VMBuilds\LAB8_NEW\stm32duino_genericSTM32F103C6\Release\core.a(gpio.c.o)
 .debug_frame   0x000024f0       0xb4 C:\Users\Данила Кондрашов\AppData\Local\Temp\VMBuilds\LAB8_NEW\stm32duino_genericSTM32F103C6\Release\core.a(usart.c.o)
 .debug_frame   0x000025a4      0x17c C:\Users\Данила Кондрашов\AppData\Local\Temp\VMBuilds\LAB8_NEW\stm32duino_genericSTM32F103C6\Release\core.a(HardwareTimer.cpp.o)
 .debug_frame   0x00002720       0x2c c:/users/данила кондрашов/appdata/local/arduino15/packages/arduino/tools/arm-none-eabi-gcc/4.8.3-2014q1/bin/../lib/gcc/arm-none-eabi/4.8.3/armv7-m\libgcc.a(_fixdfdi.o)
 .debug_frame   0x0000274c       0x2c c:/users/данила кондрашов/appdata/local/arduino15/packages/arduino/tools/arm-none-eabi-gcc/4.8.3-2014q1/bin/../lib/gcc/arm-none-eabi/4.8.3/armv7-m\libgcc.a(_fixunsdfdi.o)
 .debug_frame   0x00002778       0x58 c:/users/данила кондрашов/appdata/local/arduino15/packages/arduino/tools/arm-none-eabi-gcc/4.8.3-2014q1/bin/../lib/gcc/arm-none-eabi/4.8.3/armv7-m\libgcc.a(bpabi.o)
 .debug_frame   0x000027d0       0x34 c:/users/данила кондрашов/appdata/local/arduino15/packages/arduino/tools/arm-none-eabi-gcc/4.8.3-2014q1/bin/../lib/gcc/arm-none-eabi/4.8.3/armv7-m\libgcc.a(_divdi3.o)
 .debug_frame   0x00002804       0x34 c:/users/данила кондрашов/appdata/local/arduino15/packages/arduino/tools/arm-none-eabi-gcc/4.8.3-2014q1/bin/../lib/gcc/arm-none-eabi/4.8.3/armv7-m\libgcc.a(_udivdi3.o)
 .debug_frame   0x00002838       0x20 c:/users/данила кондрашов/appdata/local/arduino15/packages/arduino/tools/arm-none-eabi-gcc/4.8.3-2014q1/bin/../lib/gcc/arm-none-eabi/4.8.3/../../../../arm-none-eabi/lib/armv7-m\libc_s.a(lib_a-errno.o)
 .debug_frame   0x00002858       0x28 c:/users/данила кондрашов/appdata/local/arduino15/packages/arduino/tools/arm-none-eabi-gcc/4.8.3-2014q1/bin/../lib/gcc/arm-none-eabi/4.8.3/../../../../arm-none-eabi/lib/armv7-m\libc_s.a(lib_a-exit.o)
 .debug_frame   0x00002880       0x2c c:/users/данила кондрашов/appdata/local/arduino15/packages/arduino/tools/arm-none-eabi-gcc/4.8.3-2014q1/bin/../lib/gcc/arm-none-eabi/4.8.3/../../../../arm-none-eabi/lib/armv7-m\libc_s.a(lib_a-init.o)
 .debug_frame   0x000028ac       0x20 c:/users/данила кондрашов/appdata/local/arduino15/packages/arduino/tools/arm-none-eabi-gcc/4.8.3-2014q1/bin/../lib/gcc/arm-none-eabi/4.8.3/../../../../arm-none-eabi/lib/armv7-m\libc_s.a(lib_a-memset.o)
 .debug_frame   0x000028cc       0x20 c:/users/данила кондрашов/appdata/local/arduino15/packages/arduino/tools/arm-none-eabi-gcc/4.8.3-2014q1/bin/../lib/gcc/arm-none-eabi/4.8.3/../../../../arm-none-eabi/lib/armv7-m\libc_s.a(lib_a-strcpy.o)
 .debug_frame   0x000028ec       0x20 c:/users/данила кондрашов/appdata/local/arduino15/packages/arduino/tools/arm-none-eabi-gcc/4.8.3-2014q1/bin/../lib/gcc/arm-none-eabi/4.8.3/../../../../arm-none-eabi/lib/armv7-m\libc_s.a(lib_a-strlen.o)

.debug_str      0x00000000     0x9683
 *(.debug_str)
 .debug_str     0x00000000      0xa63 LAB8_NEW.cpp.o
                                0xb44 (size before relaxing)
 .debug_str     0x00000a63      0x9d6 LM75A_Arduino_library\M2M_LM75A.cpp.o
                               0x121a (size before relaxing)
 .debug_str     0x00001439      0x4dc Wire\SoftWire.cpp.o
                               0x1038 (size before relaxing)
 .debug_str     0x00001915      0x183 Wire\Wire.cpp.o
                                0xd09 (size before relaxing)
 .debug_str     0x00001a98      0x25b Wire\utility\WireBase.cpp.o
                                0xe06 (size before relaxing)
 .debug_str     0x00001cf3      0x1f2 C:\Users\Данила Кондрашов\AppData\Local\Temp\VMBCore\arduino16x\1ff78a0346523d7d91af874899f893a8\variant\board.cpp.o
                                0xd35 (size before relaxing)
 .debug_str     0x00001ee5      0x784 C:\Users\Данила Кондрашов\AppData\Local\Temp\VMBCore\arduino16x\1ff78a0346523d7d91af874899f893a8\variant\wirish\boards.cpp.o
                               0x1162 (size before relaxing)
 .debug_str     0x00002669      0x472 C:\Users\Данила Кондрашов\AppData\Local\Temp\VMBCore\arduino16x\1ff78a0346523d7d91af874899f893a8\variant\wirish\boards_setup.cpp.o
                                0xb24 (size before relaxing)
 .debug_str     0x00002adb      0x1cf C:\Users\Данила Кондрашов\AppData\Local\Temp\VMBCore\arduino16x\1ff78a0346523d7d91af874899f893a8\variant\start_c.c.o
                                0x208 (size before relaxing)
 .debug_str     0x00002caa      0x1f2 C:\Users\Данила Кондрашов\AppData\Local\Temp\VMBCore\arduino16x\1ff78a0346523d7d91af874899f893a8\variant\syscalls.c.o
                                0x399 (size before relaxing)
 .debug_str     0x00002e9c      0x23d C:\Users\Данила Кондрашов\AppData\Local\Temp\VMBuilds\LAB8_NEW\stm32duino_genericSTM32F103C6\Release\core.a(adc.c.o)
                                0xae1 (size before relaxing)
 .debug_str     0x000030d9      0x223 C:\Users\Данила Кондрашов\AppData\Local\Temp\VMBuilds\LAB8_NEW\stm32duino_genericSTM32F103C6\Release\core.a(adc_f1.c.o)
                                0xdfc (size before relaxing)
 .debug_str     0x000032fc      0xafa C:\Users\Данила Кондрашов\AppData\Local\Temp\VMBuilds\LAB8_NEW\stm32duino_genericSTM32F103C6\Release\core.a(dma_f1.c.o)
                               0x13bf (size before relaxing)
 .debug_str     0x00003df6      0x240 C:\Users\Данила Кондрашов\AppData\Local\Temp\VMBuilds\LAB8_NEW\stm32duino_genericSTM32F103C6\Release\core.a(exti.c.o)
                                0x940 (size before relaxing)
 .debug_str     0x00004036       0xbd C:\Users\Данила Кондрашов\AppData\Local\Temp\VMBuilds\LAB8_NEW\stm32duino_genericSTM32F103C6\Release\core.a(exti_f1.c.o)
                                0x306 (size before relaxing)
 .debug_str     0x000040f3       0x8a C:\Users\Данила Кондрашов\AppData\Local\Temp\VMBuilds\LAB8_NEW\stm32duino_genericSTM32F103C6\Release\core.a(flash.c.o)
                                0x225 (size before relaxing)
 .debug_str     0x0000417d      0x2de C:\Users\Данила Кондрашов\AppData\Local\Temp\VMBuilds\LAB8_NEW\stm32duino_genericSTM32F103C6\Release\core.a(gpio_f1.c.o)
                                0x7fe (size before relaxing)
 .debug_str     0x0000445b      0x27f C:\Users\Данила Кондрашов\AppData\Local\Temp\VMBuilds\LAB8_NEW\stm32duino_genericSTM32F103C6\Release\core.a(i2c.c.o)
                                0xfda (size before relaxing)
 .debug_str     0x000046da       0xe8 C:\Users\Данила Кондрашов\AppData\Local\Temp\VMBuilds\LAB8_NEW\stm32duino_genericSTM32F103C6\Release\core.a(i2c_f1.c.o)
                                0xdd7 (size before relaxing)
 .debug_str     0x000047c2       0xf9 C:\Users\Данила Кондрашов\AppData\Local\Temp\VMBuilds\LAB8_NEW\stm32duino_genericSTM32F103C6\Release\core.a(nvic.c.o)
                                0x72e (size before relaxing)
 .debug_str     0x000048bb      0x11d C:\Users\Данила Кондрашов\AppData\Local\Temp\VMBuilds\LAB8_NEW\stm32duino_genericSTM32F103C6\Release\core.a(rcc.c.o)
                                0x57a (size before relaxing)
 .debug_str     0x000049d8      0x111 C:\Users\Данила Кондрашов\AppData\Local\Temp\VMBuilds\LAB8_NEW\stm32duino_genericSTM32F103C6\Release\core.a(rcc_f1.c.o)
                                0x81b (size before relaxing)
 .debug_str     0x00004ae9       0xf6 C:\Users\Данила Кондрашов\AppData\Local\Temp\VMBuilds\LAB8_NEW\stm32duino_genericSTM32F103C6\Release\core.a(systick.c.o)
                                0x28b (size before relaxing)
 .debug_str     0x00004bdf      0x3c5 C:\Users\Данила Кондрашов\AppData\Local\Temp\VMBuilds\LAB8_NEW\stm32duino_genericSTM32F103C6\Release\core.a(timer.c.o)
                                0xed4 (size before relaxing)
 .debug_str     0x00004fa4      0x1b9 C:\Users\Данила Кондрашов\AppData\Local\Temp\VMBuilds\LAB8_NEW\stm32duino_genericSTM32F103C6\Release\core.a(usart_f1.c.o)
                                0xae5 (size before relaxing)
 .debug_str     0x0000515d       0x86 C:\Users\Данила Кондрашов\AppData\Local\Temp\VMBuilds\LAB8_NEW\stm32duino_genericSTM32F103C6\Release\core.a(usart_private.c.o)
                                0x8b0 (size before relaxing)
 .debug_str     0x000051e3      0x13c C:\Users\Данила Кондрашов\AppData\Local\Temp\VMBuilds\LAB8_NEW\stm32duino_genericSTM32F103C6\Release\core.a(util.c.o)
                                0xa5d (size before relaxing)
 .debug_str     0x0000531f      0x62f C:\Users\Данила Кондрашов\AppData\Local\Temp\VMBuilds\LAB8_NEW\stm32duino_genericSTM32F103C6\Release\core.a(usb.c.o)
                                0xa88 (size before relaxing)
 .debug_str     0x0000594e      0x9ab C:\Users\Данила Кондрашов\AppData\Local\Temp\VMBuilds\LAB8_NEW\stm32duino_genericSTM32F103C6\Release\core.a(usb_cdcacm.c.o)
                               0x1859 (size before relaxing)
 .debug_str     0x000062f9       0xb3 C:\Users\Данила Кондрашов\AppData\Local\Temp\VMBuilds\LAB8_NEW\stm32duino_genericSTM32F103C6\Release\core.a(usb_reg_map.c.o)
                                0x2ae (size before relaxing)
 .debug_str     0x000063ac      0x4b3 C:\Users\Данила Кондрашов\AppData\Local\Temp\VMBuilds\LAB8_NEW\stm32duino_genericSTM32F103C6\Release\core.a(usb_core.c.o)
                                0xae6 (size before relaxing)
 .debug_str     0x0000685f       0xb8 C:\Users\Данила Кондрашов\AppData\Local\Temp\VMBuilds\LAB8_NEW\stm32duino_genericSTM32F103C6\Release\core.a(usb_init.c.o)
                                0x54a (size before relaxing)
 .debug_str     0x00006917       0xc4 C:\Users\Данила Кондрашов\AppData\Local\Temp\VMBuilds\LAB8_NEW\stm32duino_genericSTM32F103C6\Release\core.a(usb_mem.c.o)
                                0x208 (size before relaxing)
 .debug_str     0x000069db      0x3fd C:\Users\Данила Кондрашов\AppData\Local\Temp\VMBuilds\LAB8_NEW\stm32duino_genericSTM32F103C6\Release\core.a(usb_regs.c.o)
                                0x588 (size before relaxing)
 .debug_str     0x00006dd8      0x186 C:\Users\Данила Кондрашов\AppData\Local\Temp\VMBuilds\LAB8_NEW\stm32duino_genericSTM32F103C6\Release\core.a(cxxabi-compat.cpp.o)
                                0x39f (size before relaxing)
 .debug_str     0x00006f5e      0xf96 C:\Users\Данила Кондрашов\AppData\Local\Temp\VMBuilds\LAB8_NEW\stm32duino_genericSTM32F103C6\Release\core.a(HardwareSerial.cpp.o)
                               0x1c12 (size before relaxing)
 .debug_str     0x00007ef4       0x8a C:\Users\Данила Кондрашов\AppData\Local\Temp\VMBuilds\LAB8_NEW\stm32duino_genericSTM32F103C6\Release\core.a(main.cpp.o)
                                0x1ce (size before relaxing)
 .debug_str     0x00007f7e      0x38a C:\Users\Данила Кондрашов\AppData\Local\Temp\VMBuilds\LAB8_NEW\stm32duino_genericSTM32F103C6\Release\core.a(Print.cpp.o)
                                0xfe0 (size before relaxing)
 .debug_str     0x00008308       0xa3 C:\Users\Данила Кондрашов\AppData\Local\Temp\VMBuilds\LAB8_NEW\stm32duino_genericSTM32F103C6\Release\core.a(pwm.cpp.o)
                                0xb88 (size before relaxing)
 .debug_str     0x000083ab      0xc34 C:\Users\Данила Кондрашов\AppData\Local\Temp\VMBuilds\LAB8_NEW\stm32duino_genericSTM32F103C6\Release\core.a(tone.cpp.o)
                               0x18b9 (size before relaxing)
 .debug_str     0x00008fdf       0x80 C:\Users\Данила Кондрашов\AppData\Local\Temp\VMBuilds\LAB8_NEW\stm32duino_genericSTM32F103C6\Release\core.a(wirish_digital.cpp.o)
                                0xaee (size before relaxing)
 .debug_str     0x0000905f       0xb8 C:\Users\Данила Кондрашов\AppData\Local\Temp\VMBuilds\LAB8_NEW\stm32duino_genericSTM32F103C6\Release\core.a(wirish_time.cpp.o)
                                0x33d (size before relaxing)
 .debug_str     0x00009117       0x96 C:\Users\Данила Кондрашов\AppData\Local\Temp\VMBuilds\LAB8_NEW\stm32duino_genericSTM32F103C6\Release\core.a(wirish_digital_f1.cpp.o)
                                0xc7d (size before relaxing)
 .debug_str     0x000091ad       0x7d C:\Users\Данила Кондрашов\AppData\Local\Temp\VMBuilds\LAB8_NEW\stm32duino_genericSTM32F103C6\Release\core.a(hooks.c.o)
                                0x147 (size before relaxing)
 .debug_str     0x0000922a      0x154 C:\Users\Данила Кондрашов\AppData\Local\Temp\VMBuilds\LAB8_NEW\stm32duino_genericSTM32F103C6\Release\core.a(dma.c.o)
                                0xa59 (size before relaxing)
 .debug_str     0x0000937e       0x7d C:\Users\Данила Кондрашов\AppData\Local\Temp\VMBuilds\LAB8_NEW\stm32duino_genericSTM32F103C6\Release\core.a(gpio.c.o)
                                0x469 (size before relaxing)
 .debug_str     0x000093fb       0xcf C:\Users\Данила Кондрашов\AppData\Local\Temp\VMBuilds\LAB8_NEW\stm32duino_genericSTM32F103C6\Release\core.a(usart.c.o)
                                0x9f1 (size before relaxing)
 .debug_str     0x000094ca      0x1b9 C:\Users\Данила Кондрашов\AppData\Local\Temp\VMBuilds\LAB8_NEW\stm32duino_genericSTM32F103C6\Release\core.a(HardwareTimer.cpp.o)
                               0x1795 (size before relaxing)

.debug_loc      0x00000000     0xa15f
 *(.debug_loc)
 .debug_loc     0x00000000       0x70 LAB8_NEW.cpp.o
 .debug_loc     0x00000070      0x6fe LM75A_Arduino_library\M2M_LM75A.cpp.o
 .debug_loc     0x0000076e      0x531 Wire\SoftWire.cpp.o
 .debug_loc     0x00000c9f      0x219 Wire\Wire.cpp.o
 .debug_loc     0x00000eb8      0x488 Wire\utility\WireBase.cpp.o
 .debug_loc     0x00001340      0x246 C:\Users\Данила Кондрашов\AppData\Local\Temp\VMBCore\arduino16x\1ff78a0346523d7d91af874899f893a8\variant\wirish\boards.cpp.o
 .debug_loc     0x00001586       0x87 C:\Users\Данила Кондрашов\AppData\Local\Temp\VMBCore\arduino16x\1ff78a0346523d7d91af874899f893a8\variant\start_c.c.o
 .debug_loc     0x0000160d      0x38a C:\Users\Данила Кондрашов\AppData\Local\Temp\VMBCore\arduino16x\1ff78a0346523d7d91af874899f893a8\variant\syscalls.c.o
 .debug_loc     0x00001997      0x145 C:\Users\Данила Кондрашов\AppData\Local\Temp\VMBuilds\LAB8_NEW\stm32duino_genericSTM32F103C6\Release\core.a(adc.c.o)
 .debug_loc     0x00001adc      0x2c7 C:\Users\Данила Кондрашов\AppData\Local\Temp\VMBuilds\LAB8_NEW\stm32duino_genericSTM32F103C6\Release\core.a(adc_f1.c.o)
 .debug_loc     0x00001da3      0xb40 C:\Users\Данила Кондрашов\AppData\Local\Temp\VMBuilds\LAB8_NEW\stm32duino_genericSTM32F103C6\Release\core.a(dma_f1.c.o)
 .debug_loc     0x000028e3      0x5ee C:\Users\Данила Кондрашов\AppData\Local\Temp\VMBuilds\LAB8_NEW\stm32duino_genericSTM32F103C6\Release\core.a(exti.c.o)
 .debug_loc     0x00002ed1       0x42 C:\Users\Данила Кондрашов\AppData\Local\Temp\VMBuilds\LAB8_NEW\stm32duino_genericSTM32F103C6\Release\core.a(exti_f1.c.o)
 .debug_loc     0x00002f13       0x3f C:\Users\Данила Кондрашов\AppData\Local\Temp\VMBuilds\LAB8_NEW\stm32duino_genericSTM32F103C6\Release\core.a(flash.c.o)
 .debug_loc     0x00002f52      0x2ba C:\Users\Данила Кондрашов\AppData\Local\Temp\VMBuilds\LAB8_NEW\stm32duino_genericSTM32F103C6\Release\core.a(gpio_f1.c.o)
 .debug_loc     0x0000320c      0xc98 C:\Users\Данила Кондрашов\AppData\Local\Temp\VMBuilds\LAB8_NEW\stm32duino_genericSTM32F103C6\Release\core.a(i2c.c.o)
 .debug_loc     0x00003ea4      0x1b9 C:\Users\Данила Кондрашов\AppData\Local\Temp\VMBuilds\LAB8_NEW\stm32duino_genericSTM32F103C6\Release\core.a(i2c_f1.c.o)
 .debug_loc     0x0000405d      0x121 C:\Users\Данила Кондрашов\AppData\Local\Temp\VMBuilds\LAB8_NEW\stm32duino_genericSTM32F103C6\Release\core.a(nvic.c.o)
 .debug_loc     0x0000417e      0x131 C:\Users\Данила Кондрашов\AppData\Local\Temp\VMBuilds\LAB8_NEW\stm32duino_genericSTM32F103C6\Release\core.a(rcc.c.o)
 .debug_loc     0x000042af      0x352 C:\Users\Данила Кондрашов\AppData\Local\Temp\VMBuilds\LAB8_NEW\stm32duino_genericSTM32F103C6\Release\core.a(rcc_f1.c.o)
 .debug_loc     0x00004601      0xb8c C:\Users\Данила Кондрашов\AppData\Local\Temp\VMBuilds\LAB8_NEW\stm32duino_genericSTM32F103C6\Release\core.a(timer.c.o)
 .debug_loc     0x0000518d      0x2d2 C:\Users\Данила Кондрашов\AppData\Local\Temp\VMBuilds\LAB8_NEW\stm32duino_genericSTM32F103C6\Release\core.a(usart_f1.c.o)
 .debug_loc     0x0000545f       0x3f C:\Users\Данила Кондрашов\AppData\Local\Temp\VMBuilds\LAB8_NEW\stm32duino_genericSTM32F103C6\Release\core.a(usart_private.c.o)
 .debug_loc     0x0000549e      0x27f C:\Users\Данила Кондрашов\AppData\Local\Temp\VMBuilds\LAB8_NEW\stm32duino_genericSTM32F103C6\Release\core.a(util.c.o)
 .debug_loc     0x0000571d      0x4c8 C:\Users\Данила Кондрашов\AppData\Local\Temp\VMBuilds\LAB8_NEW\stm32duino_genericSTM32F103C6\Release\core.a(usb.c.o)
 .debug_loc     0x00005be5      0xaab C:\Users\Данила Кондрашов\AppData\Local\Temp\VMBuilds\LAB8_NEW\stm32duino_genericSTM32F103C6\Release\core.a(usb_cdcacm.c.o)
 .debug_loc     0x00006690      0x119 C:\Users\Данила Кондрашов\AppData\Local\Temp\VMBuilds\LAB8_NEW\stm32duino_genericSTM32F103C6\Release\core.a(usb_reg_map.c.o)
 .debug_loc     0x000067a9      0x7a1 C:\Users\Данила Кондрашов\AppData\Local\Temp\VMBuilds\LAB8_NEW\stm32duino_genericSTM32F103C6\Release\core.a(usb_core.c.o)
 .debug_loc     0x00006f4a      0x260 C:\Users\Данила Кондрашов\AppData\Local\Temp\VMBuilds\LAB8_NEW\stm32duino_genericSTM32F103C6\Release\core.a(usb_mem.c.o)
 .debug_loc     0x000071aa      0xbab C:\Users\Данила Кондрашов\AppData\Local\Temp\VMBuilds\LAB8_NEW\stm32duino_genericSTM32F103C6\Release\core.a(usb_regs.c.o)
 .debug_loc     0x00007d55       0x81 C:\Users\Данила Кондрашов\AppData\Local\Temp\VMBuilds\LAB8_NEW\stm32duino_genericSTM32F103C6\Release\core.a(cxxabi-compat.cpp.o)
 .debug_loc     0x00007dd6      0x39a C:\Users\Данила Кондрашов\AppData\Local\Temp\VMBuilds\LAB8_NEW\stm32duino_genericSTM32F103C6\Release\core.a(HardwareSerial.cpp.o)
 .debug_loc     0x00008170     0x10a7 C:\Users\Данила Кондрашов\AppData\Local\Temp\VMBuilds\LAB8_NEW\stm32duino_genericSTM32F103C6\Release\core.a(Print.cpp.o)
 .debug_loc     0x00009217       0xb1 C:\Users\Данила Кондрашов\AppData\Local\Temp\VMBuilds\LAB8_NEW\stm32duino_genericSTM32F103C6\Release\core.a(pwm.cpp.o)
 .debug_loc     0x000092c8       0xee C:\Users\Данила Кондрашов\AppData\Local\Temp\VMBuilds\LAB8_NEW\stm32duino_genericSTM32F103C6\Release\core.a(tone.cpp.o)
 .debug_loc     0x000093b6       0x7c C:\Users\Данила Кондрашов\AppData\Local\Temp\VMBuilds\LAB8_NEW\stm32duino_genericSTM32F103C6\Release\core.a(wirish_digital.cpp.o)
 .debug_loc     0x00009432       0x82 C:\Users\Данила Кондрашов\AppData\Local\Temp\VMBuilds\LAB8_NEW\stm32duino_genericSTM32F103C6\Release\core.a(wirish_time.cpp.o)
 .debug_loc     0x000094b4      0x137 C:\Users\Данила Кондрашов\AppData\Local\Temp\VMBuilds\LAB8_NEW\stm32duino_genericSTM32F103C6\Release\core.a(wirish_digital_f1.cpp.o)
 .debug_loc     0x000095eb       0x42 C:\Users\Данила Кондрашов\AppData\Local\Temp\VMBuilds\LAB8_NEW\stm32duino_genericSTM32F103C6\Release\core.a(dma.c.o)
 .debug_loc     0x0000962d       0x2c C:\Users\Данила Кондрашов\AppData\Local\Temp\VMBuilds\LAB8_NEW\stm32duino_genericSTM32F103C6\Release\core.a(gpio.c.o)
 .debug_loc     0x00009659      0x3af C:\Users\Данила Кондрашов\AppData\Local\Temp\VMBuilds\LAB8_NEW\stm32duino_genericSTM32F103C6\Release\core.a(usart.c.o)
 .debug_loc     0x00009a08      0x757 C:\Users\Данила Кондрашов\AppData\Local\Temp\VMBuilds\LAB8_NEW\stm32duino_genericSTM32F103C6\Release\core.a(HardwareTimer.cpp.o)

.debug_macinfo
 *(.debug_macinfo)

.debug_weaknames
 *(.debug_weaknames)

.debug_funcnames
 *(.debug_funcnames)

.debug_typenames
 *(.debug_typenames)

.debug_varnames
 *(.debug_varnames)

.note.gnu.arm.ident
 *(.note.gnu.arm.ident)

.ARM.attributes
                0x00000000       0x29
 *(.ARM.attributes)
 .ARM.attributes
                0x00000000       0x1d c:/users/данила кондрашов/appdata/local/arduino15/packages/arduino/tools/arm-none-eabi-gcc/4.8.3-2014q1/bin/../lib/gcc/arm-none-eabi/4.8.3/armv7-m/crti.o
 .ARM.attributes
                0x0000001d       0x2d c:/users/данила кондрашов/appdata/local/arduino15/packages/arduino/tools/arm-none-eabi-gcc/4.8.3-2014q1/bin/../lib/gcc/arm-none-eabi/4.8.3/armv7-m/crtbegin.o
 .ARM.attributes
                0x0000004a       0x1b c:/users/данила кондрашов/appdata/local/arduino15/packages/arduino/tools/arm-none-eabi-gcc/4.8.3-2014q1/bin/../lib/gcc/arm-none-eabi/4.8.3/../../../../arm-none-eabi/lib/armv7-m/crt0.o
 .ARM.attributes
                0x00000065       0x33 LAB8_NEW.cpp.o
 .ARM.attributes
                0x00000098       0x33 LM75A_Arduino_library\M2M_LM75A.cpp.o
 .ARM.attributes
                0x000000cb       0x33 Wire\SoftWire.cpp.o
 .ARM.attributes
                0x000000fe       0x33 Wire\Wire.cpp.o
 .ARM.attributes
                0x00000131       0x33 Wire\utility\WireBase.cpp.o
 .ARM.attributes
                0x00000164       0x33 C:\Users\Данила Кондрашов\AppData\Local\Temp\VMBCore\arduino16x\1ff78a0346523d7d91af874899f893a8\variant\board.cpp.o
 .ARM.attributes
                0x00000197       0x33 C:\Users\Данила Кондрашов\AppData\Local\Temp\VMBCore\arduino16x\1ff78a0346523d7d91af874899f893a8\variant\wirish\boards.cpp.o
 .ARM.attributes
                0x000001ca       0x33 C:\Users\Данила Кондрашов\AppData\Local\Temp\VMBCore\arduino16x\1ff78a0346523d7d91af874899f893a8\variant\wirish\boards_setup.cpp.o
 .ARM.attributes
                0x000001fd       0x1b C:\Users\Данила Кондрашов\AppData\Local\Temp\VMBCore\arduino16x\1ff78a0346523d7d91af874899f893a8\variant\start.S.o
 .ARM.attributes
                0x00000218       0x33 C:\Users\Данила Кондрашов\AppData\Local\Temp\VMBCore\arduino16x\1ff78a0346523d7d91af874899f893a8\variant\start_c.c.o
 .ARM.attributes
                0x0000024b       0x33 C:\Users\Данила Кондрашов\AppData\Local\Temp\VMBCore\arduino16x\1ff78a0346523d7d91af874899f893a8\variant\syscalls.c.o
 .ARM.attributes
                0x0000027e       0x1b C:\Users\Данила Кондрашов\AppData\Local\Temp\VMBuilds\LAB8_NEW\stm32duino_genericSTM32F103C6\Release\core.a(exc.S.o)
 .ARM.attributes
                0x00000299       0x1b C:\Users\Данила Кондрашов\AppData\Local\Temp\VMBuilds\LAB8_NEW\stm32duino_genericSTM32F103C6\Release\core.a(isrs.S.o)
 .ARM.attributes
                0x000002b4       0x1b C:\Users\Данила Кондрашов\AppData\Local\Temp\VMBuilds\LAB8_NEW\stm32duino_genericSTM32F103C6\Release\core.a(vector_table.S.o)
 .ARM.attributes
                0x000002cf       0x33 C:\Users\Данила Кондрашов\AppData\Local\Temp\VMBuilds\LAB8_NEW\stm32duino_genericSTM32F103C6\Release\core.a(adc.c.o)
 .ARM.attributes
                0x00000302       0x33 C:\Users\Данила Кондрашов\AppData\Local\Temp\VMBuilds\LAB8_NEW\stm32duino_genericSTM32F103C6\Release\core.a(adc_f1.c.o)
 .ARM.attributes
                0x00000335       0x33 C:\Users\Данила Кондрашов\AppData\Local\Temp\VMBuilds\LAB8_NEW\stm32duino_genericSTM32F103C6\Release\core.a(dma_f1.c.o)
 .ARM.attributes
                0x00000368       0x33 C:\Users\Данила Кондрашов\AppData\Local\Temp\VMBuilds\LAB8_NEW\stm32duino_genericSTM32F103C6\Release\core.a(exti.c.o)
 .ARM.attributes
                0x0000039b       0x33 C:\Users\Данила Кондрашов\AppData\Local\Temp\VMBuilds\LAB8_NEW\stm32duino_genericSTM32F103C6\Release\core.a(exti_f1.c.o)
 .ARM.attributes
                0x000003ce       0x33 C:\Users\Данила Кондрашов\AppData\Local\Temp\VMBuilds\LAB8_NEW\stm32duino_genericSTM32F103C6\Release\core.a(flash.c.o)
 .ARM.attributes
                0x00000401       0x33 C:\Users\Данила Кондрашов\AppData\Local\Temp\VMBuilds\LAB8_NEW\stm32duino_genericSTM32F103C6\Release\core.a(gpio_f1.c.o)
 .ARM.attributes
                0x00000434       0x33 C:\Users\Данила Кондрашов\AppData\Local\Temp\VMBuilds\LAB8_NEW\stm32duino_genericSTM32F103C6\Release\core.a(i2c.c.o)
 .ARM.attributes
                0x00000467       0x33 C:\Users\Данила Кондрашов\AppData\Local\Temp\VMBuilds\LAB8_NEW\stm32duino_genericSTM32F103C6\Release\core.a(i2c_f1.c.o)
 .ARM.attributes
                0x0000049a       0x33 C:\Users\Данила Кондрашов\AppData\Local\Temp\VMBuilds\LAB8_NEW\stm32duino_genericSTM32F103C6\Release\core.a(nvic.c.o)
 .ARM.attributes
                0x000004cd       0x33 C:\Users\Данила Кондрашов\AppData\Local\Temp\VMBuilds\LAB8_NEW\stm32duino_genericSTM32F103C6\Release\core.a(rcc.c.o)
 .ARM.attributes
                0x00000500       0x33 C:\Users\Данила Кондрашов\AppData\Local\Temp\VMBuilds\LAB8_NEW\stm32duino_genericSTM32F103C6\Release\core.a(rcc_f1.c.o)
 .ARM.attributes
                0x00000533       0x33 C:\Users\Данила Кондрашов\AppData\Local\Temp\VMBuilds\LAB8_NEW\stm32duino_genericSTM32F103C6\Release\core.a(systick.c.o)
 .ARM.attributes
                0x00000566       0x33 C:\Users\Данила Кондрашов\AppData\Local\Temp\VMBuilds\LAB8_NEW\stm32duino_genericSTM32F103C6\Release\core.a(timer.c.o)
 .ARM.attributes
                0x00000599       0x33 C:\Users\Данила Кондрашов\AppData\Local\Temp\VMBuilds\LAB8_NEW\stm32duino_genericSTM32F103C6\Release\core.a(usart_f1.c.o)
 .ARM.attributes
                0x000005cc       0x33 C:\Users\Данила Кондрашов\AppData\Local\Temp\VMBuilds\LAB8_NEW\stm32duino_genericSTM32F103C6\Release\core.a(usart_private.c.o)
 .ARM.attributes
                0x000005ff       0x33 C:\Users\Данила Кондрашов\AppData\Local\Temp\VMBuilds\LAB8_NEW\stm32duino_genericSTM32F103C6\Release\core.a(util.c.o)
 .ARM.attributes
                0x00000632       0x33 C:\Users\Данила Кондрашов\AppData\Local\Temp\VMBuilds\LAB8_NEW\stm32duino_genericSTM32F103C6\Release\core.a(usb.c.o)
 .ARM.attributes
                0x00000665       0x33 C:\Users\Данила Кондрашов\AppData\Local\Temp\VMBuilds\LAB8_NEW\stm32duino_genericSTM32F103C6\Release\core.a(usb_cdcacm.c.o)
 .ARM.attributes
                0x00000698       0x33 C:\Users\Данила Кондрашов\AppData\Local\Temp\VMBuilds\LAB8_NEW\stm32duino_genericSTM32F103C6\Release\core.a(usb_reg_map.c.o)
 .ARM.attributes
                0x000006cb       0x33 C:\Users\Данила Кондрашов\AppData\Local\Temp\VMBuilds\LAB8_NEW\stm32duino_genericSTM32F103C6\Release\core.a(usb_core.c.o)
 .ARM.attributes
                0x000006fe       0x33 C:\Users\Данила Кондрашов\AppData\Local\Temp\VMBuilds\LAB8_NEW\stm32duino_genericSTM32F103C6\Release\core.a(usb_init.c.o)
 .ARM.attributes
                0x00000731       0x33 C:\Users\Данила Кондрашов\AppData\Local\Temp\VMBuilds\LAB8_NEW\stm32duino_genericSTM32F103C6\Release\core.a(usb_mem.c.o)
 .ARM.attributes
                0x00000764       0x33 C:\Users\Данила Кондрашов\AppData\Local\Temp\VMBuilds\LAB8_NEW\stm32duino_genericSTM32F103C6\Release\core.a(usb_regs.c.o)
 .ARM.attributes
                0x00000797       0x33 C:\Users\Данила Кондрашов\AppData\Local\Temp\VMBuilds\LAB8_NEW\stm32duino_genericSTM32F103C6\Release\core.a(cxxabi-compat.cpp.o)
 .ARM.attributes
                0x000007ca       0x33 C:\Users\Данила Кондрашов\AppData\Local\Temp\VMBuilds\LAB8_NEW\stm32duino_genericSTM32F103C6\Release\core.a(HardwareSerial.cpp.o)
 .ARM.attributes
                0x000007fd       0x33 C:\Users\Данила Кондрашов\AppData\Local\Temp\VMBuilds\LAB8_NEW\stm32duino_genericSTM32F103C6\Release\core.a(main.cpp.o)
 .ARM.attributes
                0x00000830       0x33 C:\Users\Данила Кондрашов\AppData\Local\Temp\VMBuilds\LAB8_NEW\stm32duino_genericSTM32F103C6\Release\core.a(Print.cpp.o)
 .ARM.attributes
                0x00000863       0x33 C:\Users\Данила Кондрашов\AppData\Local\Temp\VMBuilds\LAB8_NEW\stm32duino_genericSTM32F103C6\Release\core.a(pwm.cpp.o)
 .ARM.attributes
                0x00000896       0x33 C:\Users\Данила Кондрашов\AppData\Local\Temp\VMBuilds\LAB8_NEW\stm32duino_genericSTM32F103C6\Release\core.a(tone.cpp.o)
 .ARM.attributes
                0x000008c9       0x33 C:\Users\Данила Кондрашов\AppData\Local\Temp\VMBuilds\LAB8_NEW\stm32duino_genericSTM32F103C6\Release\core.a(wirish_digital.cpp.o)
 .ARM.attributes
                0x000008fc       0x33 C:\Users\Данила Кондрашов\AppData\Local\Temp\VMBuilds\LAB8_NEW\stm32duino_genericSTM32F103C6\Release\core.a(wirish_time.cpp.o)
 .ARM.attributes
                0x0000092f       0x33 C:\Users\Данила Кондрашов\AppData\Local\Temp\VMBuilds\LAB8_NEW\stm32duino_genericSTM32F103C6\Release\core.a(wirish_digital_f1.cpp.o)
 .ARM.attributes
                0x00000962       0x33 C:\Users\Данила Кондрашов\AppData\Local\Temp\VMBuilds\LAB8_NEW\stm32duino_genericSTM32F103C6\Release\core.a(hooks.c.o)
 .ARM.attributes
                0x00000995       0x33 C:\Users\Данила Кондрашов\AppData\Local\Temp\VMBuilds\LAB8_NEW\stm32duino_genericSTM32F103C6\Release\core.a(dma.c.o)
 .ARM.attributes
                0x000009c8       0x33 C:\Users\Данила Кондрашов\AppData\Local\Temp\VMBuilds\LAB8_NEW\stm32duino_genericSTM32F103C6\Release\core.a(gpio.c.o)
 .ARM.attributes
                0x000009fb       0x33 C:\Users\Данила Кондрашов\AppData\Local\Temp\VMBuilds\LAB8_NEW\stm32duino_genericSTM32F103C6\Release\core.a(usart.c.o)
 .ARM.attributes
                0x00000a2e       0x33 C:\Users\Данила Кондрашов\AppData\Local\Temp\VMBuilds\LAB8_NEW\stm32duino_genericSTM32F103C6\Release\core.a(HardwareTimer.cpp.o)
 .ARM.attributes
                0x00000a61       0x1d c:/users/данила кондрашов/appdata/local/arduino15/packages/arduino/tools/arm-none-eabi-gcc/4.8.3-2014q1/bin/../lib/gcc/arm-none-eabi/4.8.3/armv7-m\libgcc.a(_arm_addsubdf3.o)
 .ARM.attributes
                0x00000a7e       0x1d c:/users/данила кондрашов/appdata/local/arduino15/packages/arduino/tools/arm-none-eabi-gcc/4.8.3-2014q1/bin/../lib/gcc/arm-none-eabi/4.8.3/armv7-m\libgcc.a(_arm_muldivdf3.o)
 .ARM.attributes
                0x00000a9b       0x1d c:/users/данила кондрашов/appdata/local/arduino15/packages/arduino/tools/arm-none-eabi-gcc/4.8.3-2014q1/bin/../lib/gcc/arm-none-eabi/4.8.3/armv7-m\libgcc.a(_arm_cmpdf2.o)
 .ARM.attributes
                0x00000ab8       0x1d c:/users/данила кондрашов/appdata/local/arduino15/packages/arduino/tools/arm-none-eabi-gcc/4.8.3-2014q1/bin/../lib/gcc/arm-none-eabi/4.8.3/armv7-m\libgcc.a(_arm_fixdfsi.o)
 .ARM.attributes
                0x00000ad5       0x1d c:/users/данила кондрашов/appdata/local/arduino15/packages/arduino/tools/arm-none-eabi-gcc/4.8.3-2014q1/bin/../lib/gcc/arm-none-eabi/4.8.3/armv7-m\libgcc.a(_arm_addsubsf3.o)
 .ARM.attributes
                0x00000af2       0x1d c:/users/данила кондрашов/appdata/local/arduino15/packages/arduino/tools/arm-none-eabi-gcc/4.8.3-2014q1/bin/../lib/gcc/arm-none-eabi/4.8.3/armv7-m\libgcc.a(_arm_muldivsf3.o)
 .ARM.attributes
                0x00000b0f       0x1d c:/users/данила кондрашов/appdata/local/arduino15/packages/arduino/tools/arm-none-eabi-gcc/4.8.3-2014q1/bin/../lib/gcc/arm-none-eabi/4.8.3/armv7-m\libgcc.a(_arm_fixunssfsi.o)
 .ARM.attributes
                0x00000b2c       0x1d c:/users/данила кондрашов/appdata/local/arduino15/packages/arduino/tools/arm-none-eabi-gcc/4.8.3-2014q1/bin/../lib/gcc/arm-none-eabi/4.8.3/armv7-m\libgcc.a(_aeabi_uldivmod.o)
 .ARM.attributes
                0x00000b49       0x2d c:/users/данила кондрашов/appdata/local/arduino15/packages/arduino/tools/arm-none-eabi-gcc/4.8.3-2014q1/bin/../lib/gcc/arm-none-eabi/4.8.3/armv7-m\libgcc.a(_fixdfdi.o)
 .ARM.attributes
                0x00000b76       0x2d c:/users/данила кондрашов/appdata/local/arduino15/packages/arduino/tools/arm-none-eabi-gcc/4.8.3-2014q1/bin/../lib/gcc/arm-none-eabi/4.8.3/armv7-m\libgcc.a(_fixunsdfdi.o)
 .ARM.attributes
                0x00000ba3       0x2d c:/users/данила кондрашов/appdata/local/arduino15/packages/arduino/tools/arm-none-eabi-gcc/4.8.3-2014q1/bin/../lib/gcc/arm-none-eabi/4.8.3/armv7-m\libgcc.a(bpabi.o)
 .ARM.attributes
                0x00000bd0       0x1d c:/users/данила кондрашов/appdata/local/arduino15/packages/arduino/tools/arm-none-eabi-gcc/4.8.3-2014q1/bin/../lib/gcc/arm-none-eabi/4.8.3/armv7-m\libgcc.a(_dvmd_tls.o)
 .ARM.attributes
                0x00000bed       0x1d c:/users/данила кондрашов/appdata/local/arduino15/packages/arduino/tools/arm-none-eabi-gcc/4.8.3-2014q1/bin/../lib/gcc/arm-none-eabi/4.8.3/armv7-m\libgcc.a(_arm_fixunsdfsi.o)
 .ARM.attributes
                0x00000c0a       0x2d c:/users/данила кондрашов/appdata/local/arduino15/packages/arduino/tools/arm-none-eabi-gcc/4.8.3-2014q1/bin/../lib/gcc/arm-none-eabi/4.8.3/armv7-m\libgcc.a(_divdi3.o)
 .ARM.attributes
                0x00000c37       0x2d c:/users/данила кондрашов/appdata/local/arduino15/packages/arduino/tools/arm-none-eabi-gcc/4.8.3-2014q1/bin/../lib/gcc/arm-none-eabi/4.8.3/armv7-m\libgcc.a(_udivdi3.o)
 .ARM.attributes
                0x00000c64       0x2d c:/users/данила кондрашов/appdata/local/arduino15/packages/arduino/tools/arm-none-eabi-gcc/4.8.3-2014q1/bin/../lib/gcc/arm-none-eabi/4.8.3/../../../../arm-none-eabi/lib/armv7-m\libc_s.a(lib_a-errno.o)
 .ARM.attributes
                0x00000c91       0x2d c:/users/данила кондрашов/appdata/local/arduino15/packages/arduino/tools/arm-none-eabi-gcc/4.8.3-2014q1/bin/../lib/gcc/arm-none-eabi/4.8.3/../../../../arm-none-eabi/lib/armv7-m\libc_s.a(lib_a-exit.o)
 .ARM.attributes
                0x00000cbe       0x2d c:/users/данила кондрашов/appdata/local/arduino15/packages/arduino/tools/arm-none-eabi-gcc/4.8.3-2014q1/bin/../lib/gcc/arm-none-eabi/4.8.3/../../../../arm-none-eabi/lib/armv7-m\libc_s.a(lib_a-impure.o)
 .ARM.attributes
                0x00000ceb       0x2d c:/users/данила кондрашов/appdata/local/arduino15/packages/arduino/tools/arm-none-eabi-gcc/4.8.3-2014q1/bin/../lib/gcc/arm-none-eabi/4.8.3/../../../../arm-none-eabi/lib/armv7-m\libc_s.a(lib_a-init.o)
 .ARM.attributes
                0x00000d18       0x2d c:/users/данила кондрашов/appdata/local/arduino15/packages/arduino/tools/arm-none-eabi-gcc/4.8.3-2014q1/bin/../lib/gcc/arm-none-eabi/4.8.3/../../../../arm-none-eabi/lib/armv7-m\libc_s.a(lib_a-memset.o)
 .ARM.attributes
                0x00000d45       0x2d c:/users/данила кондрашов/appdata/local/arduino15/packages/arduino/tools/arm-none-eabi-gcc/4.8.3-2014q1/bin/../lib/gcc/arm-none-eabi/4.8.3/../../../../arm-none-eabi/lib/armv7-m\libc_s.a(lib_a-strcpy.o)
 .ARM.attributes
                0x00000d72       0x2d c:/users/данила кондрашов/appdata/local/arduino15/packages/arduino/tools/arm-none-eabi-gcc/4.8.3-2014q1/bin/../lib/gcc/arm-none-eabi/4.8.3/../../../../arm-none-eabi/lib/armv7-m\libc_s.a(lib_a-strlen.o)
 .ARM.attributes
                0x00000d9f       0x2d c:/users/данила кондрашов/appdata/local/arduino15/packages/arduino/tools/arm-none-eabi-gcc/4.8.3-2014q1/bin/../lib/gcc/arm-none-eabi/4.8.3/armv7-m/crtend.o
 .ARM.attributes
                0x00000dcc       0x1d c:/users/данила кондрашов/appdata/local/arduino15/packages/arduino/tools/arm-none-eabi-gcc/4.8.3-2014q1/bin/../lib/gcc/arm-none-eabi/4.8.3/armv7-m/crtn.o

/DISCARD/
 *(.note.GNU-stack)
OUTPUT(C:\Users\Данила Кондрашов\AppData\Local\Temp\VMBuilds\LAB8_NEW\stm32duino_genericSTM32F103C6\Release/LAB8_NEW.ino.elf elf32-littlearm)

.debug_ranges   0x00000000     0x1fc0
 .debug_ranges  0x00000000       0x38 LAB8_NEW.cpp.o
 .debug_ranges  0x00000038      0x1c8 LM75A_Arduino_library\M2M_LM75A.cpp.o
 .debug_ranges  0x00000200      0x178 Wire\SoftWire.cpp.o
 .debug_ranges  0x00000378       0x70 Wire\Wire.cpp.o
 .debug_ranges  0x000003e8       0x98 Wire\utility\WireBase.cpp.o
 .debug_ranges  0x00000480       0x38 C:\Users\Данила Кондрашов\AppData\Local\Temp\VMBCore\arduino16x\1ff78a0346523d7d91af874899f893a8\variant\board.cpp.o
 .debug_ranges  0x000004b8      0x160 C:\Users\Данила Кондрашов\AppData\Local\Temp\VMBCore\arduino16x\1ff78a0346523d7d91af874899f893a8\variant\wirish\boards.cpp.o
 .debug_ranges  0x00000618       0x30 C:\Users\Данила Кондрашов\AppData\Local\Temp\VMBCore\arduino16x\1ff78a0346523d7d91af874899f893a8\variant\wirish\boards_setup.cpp.o
 .debug_ranges  0x00000648       0x10 C:\Users\Данила Кондрашов\AppData\Local\Temp\VMBCore\arduino16x\1ff78a0346523d7d91af874899f893a8\variant\start_c.c.o
 .debug_ranges  0x00000658       0x78 C:\Users\Данила Кондрашов\AppData\Local\Temp\VMBCore\arduino16x\1ff78a0346523d7d91af874899f893a8\variant\syscalls.c.o
 .debug_ranges  0x000006d0       0x28 C:\Users\Данила Кондрашов\AppData\Local\Temp\VMBuilds\LAB8_NEW\stm32duino_genericSTM32F103C6\Release\core.a(adc.c.o)
 .debug_ranges  0x000006f8       0xb8 C:\Users\Данила Кондрашов\AppData\Local\Temp\VMBuilds\LAB8_NEW\stm32duino_genericSTM32F103C6\Release\core.a(adc_f1.c.o)
 .debug_ranges  0x000007b0      0x1d8 C:\Users\Данила Кондрашов\AppData\Local\Temp\VMBuilds\LAB8_NEW\stm32duino_genericSTM32F103C6\Release\core.a(dma_f1.c.o)
 .debug_ranges  0x00000988       0xb8 C:\Users\Данила Кондрашов\AppData\Local\Temp\VMBuilds\LAB8_NEW\stm32duino_genericSTM32F103C6\Release\core.a(exti.c.o)
 .debug_ranges  0x00000a40       0x10 C:\Users\Данила Кондрашов\AppData\Local\Temp\VMBuilds\LAB8_NEW\stm32duino_genericSTM32F103C6\Release\core.a(exti_f1.c.o)
 .debug_ranges  0x00000a50       0x10 C:\Users\Данила Кондрашов\AppData\Local\Temp\VMBuilds\LAB8_NEW\stm32duino_genericSTM32F103C6\Release\core.a(flash.c.o)
 .debug_ranges  0x00000a60       0x38 C:\Users\Данила Кондрашов\AppData\Local\Temp\VMBuilds\LAB8_NEW\stm32duino_genericSTM32F103C6\Release\core.a(gpio_f1.c.o)
 .debug_ranges  0x00000a98      0x340 C:\Users\Данила Кондрашов\AppData\Local\Temp\VMBuilds\LAB8_NEW\stm32duino_genericSTM32F103C6\Release\core.a(i2c.c.o)
 .debug_ranges  0x00000dd8       0x90 C:\Users\Данила Кондрашов\AppData\Local\Temp\VMBuilds\LAB8_NEW\stm32duino_genericSTM32F103C6\Release\core.a(i2c_f1.c.o)
 .debug_ranges  0x00000e68       0x40 C:\Users\Данила Кондрашов\AppData\Local\Temp\VMBuilds\LAB8_NEW\stm32duino_genericSTM32F103C6\Release\core.a(nvic.c.o)
 .debug_ranges  0x00000ea8       0x98 C:\Users\Данила Кондрашов\AppData\Local\Temp\VMBuilds\LAB8_NEW\stm32duino_genericSTM32F103C6\Release\core.a(rcc.c.o)
 .debug_ranges  0x00000f40       0xc8 C:\Users\Данила Кондрашов\AppData\Local\Temp\VMBuilds\LAB8_NEW\stm32duino_genericSTM32F103C6\Release\core.a(rcc_f1.c.o)
 .debug_ranges  0x00001008       0x48 C:\Users\Данила Кондрашов\AppData\Local\Temp\VMBuilds\LAB8_NEW\stm32duino_genericSTM32F103C6\Release\core.a(systick.c.o)
 .debug_ranges  0x00001050       0xe8 C:\Users\Данила Кондрашов\AppData\Local\Temp\VMBuilds\LAB8_NEW\stm32duino_genericSTM32F103C6\Release\core.a(timer.c.o)
 .debug_ranges  0x00001138       0x90 C:\Users\Данила Кондрашов\AppData\Local\Temp\VMBuilds\LAB8_NEW\stm32duino_genericSTM32F103C6\Release\core.a(usart_f1.c.o)
 .debug_ranges  0x000011c8       0x10 C:\Users\Данила Кондрашов\AppData\Local\Temp\VMBuilds\LAB8_NEW\stm32duino_genericSTM32F103C6\Release\core.a(usart_private.c.o)
 .debug_ranges  0x000011d8       0x58 C:\Users\Данила Кондрашов\AppData\Local\Temp\VMBuilds\LAB8_NEW\stm32duino_genericSTM32F103C6\Release\core.a(util.c.o)
 .debug_ranges  0x00001230       0xa8 C:\Users\Данила Кондрашов\AppData\Local\Temp\VMBuilds\LAB8_NEW\stm32duino_genericSTM32F103C6\Release\core.a(usb.c.o)
 .debug_ranges  0x000012d8      0x238 C:\Users\Данила Кондрашов\AppData\Local\Temp\VMBuilds\LAB8_NEW\stm32duino_genericSTM32F103C6\Release\core.a(usb_cdcacm.c.o)
 .debug_ranges  0x00001510       0x60 C:\Users\Данила Кондрашов\AppData\Local\Temp\VMBuilds\LAB8_NEW\stm32duino_genericSTM32F103C6\Release\core.a(usb_reg_map.c.o)
 .debug_ranges  0x00001570       0xc0 C:\Users\Данила Кондрашов\AppData\Local\Temp\VMBuilds\LAB8_NEW\stm32duino_genericSTM32F103C6\Release\core.a(usb_core.c.o)
 .debug_ranges  0x00001630       0x10 C:\Users\Данила Кондрашов\AppData\Local\Temp\VMBuilds\LAB8_NEW\stm32duino_genericSTM32F103C6\Release\core.a(usb_init.c.o)
 .debug_ranges  0x00001640       0x38 C:\Users\Данила Кондрашов\AppData\Local\Temp\VMBuilds\LAB8_NEW\stm32duino_genericSTM32F103C6\Release\core.a(usb_mem.c.o)
 .debug_ranges  0x00001678      0x290 C:\Users\Данила Кондрашов\AppData\Local\Temp\VMBuilds\LAB8_NEW\stm32duino_genericSTM32F103C6\Release\core.a(usb_regs.c.o)
 .debug_ranges  0x00001908       0x18 C:\Users\Данила Кондрашов\AppData\Local\Temp\VMBuilds\LAB8_NEW\stm32duino_genericSTM32F103C6\Release\core.a(cxxabi-compat.cpp.o)
 .debug_ranges  0x00001920       0x90 C:\Users\Данила Кондрашов\AppData\Local\Temp\VMBuilds\LAB8_NEW\stm32duino_genericSTM32F103C6\Release\core.a(HardwareSerial.cpp.o)
 .debug_ranges  0x000019b0       0x18 C:\Users\Данила Кондрашов\AppData\Local\Temp\VMBuilds\LAB8_NEW\stm32duino_genericSTM32F103C6\Release\core.a(main.cpp.o)
 .debug_ranges  0x000019c8      0x230 C:\Users\Данила Кондрашов\AppData\Local\Temp\VMBuilds\LAB8_NEW\stm32duino_genericSTM32F103C6\Release\core.a(Print.cpp.o)
 .debug_ranges  0x00001bf8       0x30 C:\Users\Данила Кондрашов\AppData\Local\Temp\VMBuilds\LAB8_NEW\stm32duino_genericSTM32F103C6\Release\core.a(pwm.cpp.o)
 .debug_ranges  0x00001c28       0x68 C:\Users\Данила Кондрашов\AppData\Local\Temp\VMBuilds\LAB8_NEW\stm32duino_genericSTM32F103C6\Release\core.a(tone.cpp.o)
 .debug_ranges  0x00001c90       0x50 C:\Users\Данила Кондрашов\AppData\Local\Temp\VMBuilds\LAB8_NEW\stm32duino_genericSTM32F103C6\Release\core.a(wirish_digital.cpp.o)
 .debug_ranges  0x00001ce0       0x20 C:\Users\Данила Кондрашов\AppData\Local\Temp\VMBuilds\LAB8_NEW\stm32duino_genericSTM32F103C6\Release\core.a(wirish_time.cpp.o)
 .debug_ranges  0x00001d00       0x30 C:\Users\Данила Кондрашов\AppData\Local\Temp\VMBuilds\LAB8_NEW\stm32duino_genericSTM32F103C6\Release\core.a(wirish_digital_f1.cpp.o)
 .debug_ranges  0x00001d30       0x10 C:\Users\Данила Кондрашов\AppData\Local\Temp\VMBuilds\LAB8_NEW\stm32duino_genericSTM32F103C6\Release\core.a(hooks.c.o)
 .debug_ranges  0x00001d40       0x18 C:\Users\Данила Кондрашов\AppData\Local\Temp\VMBuilds\LAB8_NEW\stm32duino_genericSTM32F103C6\Release\core.a(dma.c.o)
 .debug_ranges  0x00001d58       0x10 C:\Users\Данила Кондрашов\AppData\Local\Temp\VMBuilds\LAB8_NEW\stm32duino_genericSTM32F103C6\Release\core.a(gpio.c.o)
 .debug_ranges  0x00001d68       0xd0 C:\Users\Данила Кондрашов\AppData\Local\Temp\VMBuilds\LAB8_NEW\stm32duino_genericSTM32F103C6\Release\core.a(usart.c.o)
 .debug_ranges  0x00001e38      0x188 C:\Users\Данила Кондрашов\AppData\Local\Temp\VMBuilds\LAB8_NEW\stm32duino_genericSTM32F103C6\Release\core.a(HardwareTimer.cpp.o)

.comment        0x00000000       0x70
 .comment       0x00000000       0x70 LAB8_NEW.cpp.o
                                 0x71 (size before relaxing)
 .comment       0x00000000       0x71 LM75A_Arduino_library\M2M_LM75A.cpp.o
 .comment       0x00000000       0x71 Wire\SoftWire.cpp.o
 .comment       0x00000000       0x71 Wire\Wire.cpp.o
 .comment       0x00000000       0x71 Wire\utility\WireBase.cpp.o
 .comment       0x00000000       0x71 C:\Users\Данила Кондрашов\AppData\Local\Temp\VMBCore\arduino16x\1ff78a0346523d7d91af874899f893a8\variant\board.cpp.o
 .comment       0x00000000       0x71 C:\Users\Данила Кондрашов\AppData\Local\Temp\VMBCore\arduino16x\1ff78a0346523d7d91af874899f893a8\variant\wirish\boards.cpp.o
 .comment       0x00000000       0x71 C:\Users\Данила Кондрашов\AppData\Local\Temp\VMBCore\arduino16x\1ff78a0346523d7d91af874899f893a8\variant\wirish\boards_setup.cpp.o
 .comment       0x00000000       0x71 C:\Users\Данила Кондрашов\AppData\Local\Temp\VMBCore\arduino16x\1ff78a0346523d7d91af874899f893a8\variant\start_c.c.o
 .comment       0x00000000       0x71 C:\Users\Данила Кондрашов\AppData\Local\Temp\VMBCore\arduino16x\1ff78a0346523d7d91af874899f893a8\variant\syscalls.c.o
 .comment       0x00000000       0x71 C:\Users\Данила Кондрашов\AppData\Local\Temp\VMBuilds\LAB8_NEW\stm32duino_genericSTM32F103C6\Release\core.a(adc.c.o)
 .comment       0x00000000       0x71 C:\Users\Данила Кондрашов\AppData\Local\Temp\VMBuilds\LAB8_NEW\stm32duino_genericSTM32F103C6\Release\core.a(adc_f1.c.o)
 .comment       0x00000000       0x71 C:\Users\Данила Кондрашов\AppData\Local\Temp\VMBuilds\LAB8_NEW\stm32duino_genericSTM32F103C6\Release\core.a(dma_f1.c.o)
 .comment       0x00000000       0x71 C:\Users\Данила Кондрашов\AppData\Local\Temp\VMBuilds\LAB8_NEW\stm32duino_genericSTM32F103C6\Release\core.a(exti.c.o)
 .comment       0x00000000       0x71 C:\Users\Данила Кондрашов\AppData\Local\Temp\VMBuilds\LAB8_NEW\stm32duino_genericSTM32F103C6\Release\core.a(exti_f1.c.o)
 .comment       0x00000000       0x71 C:\Users\Данила Кондрашов\AppData\Local\Temp\VMBuilds\LAB8_NEW\stm32duino_genericSTM32F103C6\Release\core.a(flash.c.o)
 .comment       0x00000000       0x71 C:\Users\Данила Кондрашов\AppData\Local\Temp\VMBuilds\LAB8_NEW\stm32duino_genericSTM32F103C6\Release\core.a(gpio_f1.c.o)
 .comment       0x00000000       0x71 C:\Users\Данила Кондрашов\AppData\Local\Temp\VMBuilds\LAB8_NEW\stm32duino_genericSTM32F103C6\Release\core.a(i2c.c.o)
 .comment       0x00000000       0x71 C:\Users\Данила Кондрашов\AppData\Local\Temp\VMBuilds\LAB8_NEW\stm32duino_genericSTM32F103C6\Release\core.a(i2c_f1.c.o)
 .comment       0x00000000       0x71 C:\Users\Данила Кондрашов\AppData\Local\Temp\VMBuilds\LAB8_NEW\stm32duino_genericSTM32F103C6\Release\core.a(nvic.c.o)
 .comment       0x00000000       0x71 C:\Users\Данила Кондрашов\AppData\Local\Temp\VMBuilds\LAB8_NEW\stm32duino_genericSTM32F103C6\Release\core.a(rcc.c.o)
 .comment       0x00000000       0x71 C:\Users\Данила Кондрашов\AppData\Local\Temp\VMBuilds\LAB8_NEW\stm32duino_genericSTM32F103C6\Release\core.a(rcc_f1.c.o)
 .comment       0x00000000       0x71 C:\Users\Данила Кондрашов\AppData\Local\Temp\VMBuilds\LAB8_NEW\stm32duino_genericSTM32F103C6\Release\core.a(systick.c.o)
 .comment       0x00000000       0x71 C:\Users\Данила Кондрашов\AppData\Local\Temp\VMBuilds\LAB8_NEW\stm32duino_genericSTM32F103C6\Release\core.a(timer.c.o)
 .comment       0x00000000       0x71 C:\Users\Данила Кондрашов\AppData\Local\Temp\VMBuilds\LAB8_NEW\stm32duino_genericSTM32F103C6\Release\core.a(usart_f1.c.o)
 .comment       0x00000000       0x71 C:\Users\Данила Кондрашов\AppData\Local\Temp\VMBuilds\LAB8_NEW\stm32duino_genericSTM32F103C6\Release\core.a(usart_private.c.o)
 .comment       0x00000000       0x71 C:\Users\Данила Кондрашов\AppData\Local\Temp\VMBuilds\LAB8_NEW\stm32duino_genericSTM32F103C6\Release\core.a(util.c.o)
 .comment       0x00000000       0x71 C:\Users\Данила Кондрашов\AppData\Local\Temp\VMBuilds\LAB8_NEW\stm32duino_genericSTM32F103C6\Release\core.a(usb.c.o)
 .comment       0x00000000       0x71 C:\Users\Данила Кондрашов\AppData\Local\Temp\VMBuilds\LAB8_NEW\stm32duino_genericSTM32F103C6\Release\core.a(usb_cdcacm.c.o)
 .comment       0x00000000       0x71 C:\Users\Данила Кондрашов\AppData\Local\Temp\VMBuilds\LAB8_NEW\stm32duino_genericSTM32F103C6\Release\core.a(usb_reg_map.c.o)
 .comment       0x00000000       0x71 C:\Users\Данила Кондрашов\AppData\Local\Temp\VMBuilds\LAB8_NEW\stm32duino_genericSTM32F103C6\Release\core.a(usb_core.c.o)
 .comment       0x00000000       0x71 C:\Users\Данила Кондрашов\AppData\Local\Temp\VMBuilds\LAB8_NEW\stm32duino_genericSTM32F103C6\Release\core.a(usb_init.c.o)
 .comment       0x00000000       0x71 C:\Users\Данила Кондрашов\AppData\Local\Temp\VMBuilds\LAB8_NEW\stm32duino_genericSTM32F103C6\Release\core.a(usb_mem.c.o)
 .comment       0x00000000       0x71 C:\Users\Данила Кондрашов\AppData\Local\Temp\VMBuilds\LAB8_NEW\stm32duino_genericSTM32F103C6\Release\core.a(usb_regs.c.o)
 .comment       0x00000000       0x71 C:\Users\Данила Кондрашов\AppData\Local\Temp\VMBuilds\LAB8_NEW\stm32duino_genericSTM32F103C6\Release\core.a(cxxabi-compat.cpp.o)
 .comment       0x00000000       0x71 C:\Users\Данила Кондрашов\AppData\Local\Temp\VMBuilds\LAB8_NEW\stm32duino_genericSTM32F103C6\Release\core.a(HardwareSerial.cpp.o)
 .comment       0x00000000       0x71 C:\Users\Данила Кондрашов\AppData\Local\Temp\VMBuilds\LAB8_NEW\stm32duino_genericSTM32F103C6\Release\core.a(main.cpp.o)
 .comment       0x00000000       0x71 C:\Users\Данила Кондрашов\AppData\Local\Temp\VMBuilds\LAB8_NEW\stm32duino_genericSTM32F103C6\Release\core.a(Print.cpp.o)
 .comment       0x00000000       0x71 C:\Users\Данила Кондрашов\AppData\Local\Temp\VMBuilds\LAB8_NEW\stm32duino_genericSTM32F103C6\Release\core.a(pwm.cpp.o)
 .comment       0x00000000       0x71 C:\Users\Данила Кондрашов\AppData\Local\Temp\VMBuilds\LAB8_NEW\stm32duino_genericSTM32F103C6\Release\core.a(tone.cpp.o)
 .comment       0x00000000       0x71 C:\Users\Данила Кондрашов\AppData\Local\Temp\VMBuilds\LAB8_NEW\stm32duino_genericSTM32F103C6\Release\core.a(wirish_digital.cpp.o)
 .comment       0x00000000       0x71 C:\Users\Данила Кондрашов\AppData\Local\Temp\VMBuilds\LAB8_NEW\stm32duino_genericSTM32F103C6\Release\core.a(wirish_time.cpp.o)
 .comment       0x00000000       0x71 C:\Users\Данила Кондрашов\AppData\Local\Temp\VMBuilds\LAB8_NEW\stm32duino_genericSTM32F103C6\Release\core.a(wirish_digital_f1.cpp.o)
 .comment       0x00000000       0x71 C:\Users\Данила Кондрашов\AppData\Local\Temp\VMBuilds\LAB8_NEW\stm32duino_genericSTM32F103C6\Release\core.a(hooks.c.o)
 .comment       0x00000000       0x71 C:\Users\Данила Кондрашов\AppData\Local\Temp\VMBuilds\LAB8_NEW\stm32duino_genericSTM32F103C6\Release\core.a(dma.c.o)
 .comment       0x00000000       0x71 C:\Users\Данила Кондрашов\AppData\Local\Temp\VMBuilds\LAB8_NEW\stm32duino_genericSTM32F103C6\Release\core.a(gpio.c.o)
 .comment       0x00000000       0x71 C:\Users\Данила Кондрашов\AppData\Local\Temp\VMBuilds\LAB8_NEW\stm32duino_genericSTM32F103C6\Release\core.a(usart.c.o)
 .comment       0x00000000       0x71 C:\Users\Данила Кондрашов\AppData\Local\Temp\VMBuilds\LAB8_NEW\stm32duino_genericSTM32F103C6\Release\core.a(HardwareTimer.cpp.o)

Cross Reference Table

Symbol                                            File
ADC1                                              C:\Users\Данила Кондрашов\AppData\Local\Temp\VMBuilds\LAB8_NEW\stm32duino_genericSTM32F103C6\Release\core.a(adc_f1.c.o)
ADC2                                              C:\Users\Данила Кондрашов\AppData\Local\Temp\VMBuilds\LAB8_NEW\stm32duino_genericSTM32F103C6\Release\core.a(adc_f1.c.o)
ByteSwap                                          C:\Users\Данила Кондрашов\AppData\Local\Temp\VMBuilds\LAB8_NEW\stm32duino_genericSTM32F103C6\Release\core.a(usb_regs.c.o)
ClearDTOG_RX                                      C:\Users\Данила Кондрашов\AppData\Local\Temp\VMBuilds\LAB8_NEW\stm32duino_genericSTM32F103C6\Release\core.a(usb_regs.c.o)
                                                  C:\Users\Данила Кондрашов\AppData\Local\Temp\VMBuilds\LAB8_NEW\stm32duino_genericSTM32F103C6\Release\core.a(usb_core.c.o)
ClearDTOG_TX                                      C:\Users\Данила Кондрашов\AppData\Local\Temp\VMBuilds\LAB8_NEW\stm32duino_genericSTM32F103C6\Release\core.a(usb_regs.c.o)
                                                  C:\Users\Данила Кондрашов\AppData\Local\Temp\VMBuilds\LAB8_NEW\stm32duino_genericSTM32F103C6\Release\core.a(usb_core.c.o)
ClearEPDoubleBuff                                 C:\Users\Данила Кондрашов\AppData\Local\Temp\VMBuilds\LAB8_NEW\stm32duino_genericSTM32F103C6\Release\core.a(usb_regs.c.o)
ClearEP_CTR_RX                                    C:\Users\Данила Кондрашов\AppData\Local\Temp\VMBuilds\LAB8_NEW\stm32duino_genericSTM32F103C6\Release\core.a(usb_regs.c.o)
ClearEP_CTR_TX                                    C:\Users\Данила Кондрашов\AppData\Local\Temp\VMBuilds\LAB8_NEW\stm32duino_genericSTM32F103C6\Release\core.a(usb_regs.c.o)
ClearEP_KIND                                      C:\Users\Данила Кондрашов\AppData\Local\Temp\VMBuilds\LAB8_NEW\stm32duino_genericSTM32F103C6\Release\core.a(usb_regs.c.o)
Clear_Status_Out                                  C:\Users\Данила Кондрашов\AppData\Local\Temp\VMBuilds\LAB8_NEW\stm32duino_genericSTM32F103C6\Release\core.a(usb_regs.c.o)
DMA1                                              C:\Users\Данила Кондрашов\AppData\Local\Temp\VMBuilds\LAB8_NEW\stm32duino_genericSTM32F103C6\Release\core.a(dma_f1.c.o)
Data_Mul_MaxPacketSize                            C:\Users\Данила Кондрашов\AppData\Local\Temp\VMBuilds\LAB8_NEW\stm32duino_genericSTM32F103C6\Release\core.a(usb_core.c.o)
Device_Info                                       C:\Users\Данила Кондрашов\AppData\Local\Temp\VMBuilds\LAB8_NEW\stm32duino_genericSTM32F103C6\Release\core.a(usb_init.c.o)
                                                  C:\Users\Данила Кондрашов\AppData\Local\Temp\VMBuilds\LAB8_NEW\stm32duino_genericSTM32F103C6\Release\core.a(usb.c.o)
Device_Property                                   C:\Users\Данила Кондрашов\AppData\Local\Temp\VMBuilds\LAB8_NEW\stm32duino_genericSTM32F103C6\Release\core.a(usb_cdcacm.c.o)
                                                  C:\Users\Данила Кондрашов\AppData\Local\Temp\VMBuilds\LAB8_NEW\stm32duino_genericSTM32F103C6\Release\core.a(usb_init.c.o)
                                                  C:\Users\Данила Кондрашов\AppData\Local\Temp\VMBuilds\LAB8_NEW\stm32duino_genericSTM32F103C6\Release\core.a(usb_core.c.o)
                                                  C:\Users\Данила Кондрашов\AppData\Local\Temp\VMBuilds\LAB8_NEW\stm32duino_genericSTM32F103C6\Release\core.a(usb.c.o)
Device_Table                                      C:\Users\Данила Кондрашов\AppData\Local\Temp\VMBuilds\LAB8_NEW\stm32duino_genericSTM32F103C6\Release\core.a(usb_cdcacm.c.o)
                                                  C:\Users\Данила Кондрашов\AppData\Local\Temp\VMBuilds\LAB8_NEW\stm32duino_genericSTM32F103C6\Release\core.a(usb_core.c.o)
EPindex                                           C:\Users\Данила Кондрашов\AppData\Local\Temp\VMBuilds\LAB8_NEW\stm32duino_genericSTM32F103C6\Release\core.a(usb_init.c.o)
FreeUserBuffer                                    C:\Users\Данила Кондрашов\AppData\Local\Temp\VMBuilds\LAB8_NEW\stm32duino_genericSTM32F103C6\Release\core.a(usb_regs.c.o)
GPIOA                                             C:\Users\Данила Кондрашов\AppData\Local\Temp\VMBuilds\LAB8_NEW\stm32duino_genericSTM32F103C6\Release\core.a(gpio_f1.c.o)
GPIOB                                             C:\Users\Данила Кондрашов\AppData\Local\Temp\VMBuilds\LAB8_NEW\stm32duino_genericSTM32F103C6\Release\core.a(gpio_f1.c.o)
GPIOC                                             C:\Users\Данила Кондрашов\AppData\Local\Temp\VMBuilds\LAB8_NEW\stm32duino_genericSTM32F103C6\Release\core.a(gpio_f1.c.o)
                                                  C:\Users\Данила Кондрашов\AppData\Local\Temp\VMBuilds\LAB8_NEW\stm32duino_genericSTM32F103C6\Release\core.a(util.c.o)
GPIOD                                             C:\Users\Данила Кондрашов\AppData\Local\Temp\VMBuilds\LAB8_NEW\stm32duino_genericSTM32F103C6\Release\core.a(gpio_f1.c.o)
GetBTABLE                                         C:\Users\Данила Кондрашов\AppData\Local\Temp\VMBuilds\LAB8_NEW\stm32duino_genericSTM32F103C6\Release\core.a(usb_regs.c.o)
GetCNTR                                           C:\Users\Данила Кондрашов\AppData\Local\Temp\VMBuilds\LAB8_NEW\stm32duino_genericSTM32F103C6\Release\core.a(usb_regs.c.o)
GetDADDR                                          C:\Users\Данила Кондрашов\AppData\Local\Temp\VMBuilds\LAB8_NEW\stm32duino_genericSTM32F103C6\Release\core.a(usb_regs.c.o)
GetENDPOINT                                       C:\Users\Данила Кондрашов\AppData\Local\Temp\VMBuilds\LAB8_NEW\stm32duino_genericSTM32F103C6\Release\core.a(usb_regs.c.o)
GetEPAddress                                      C:\Users\Данила Кондрашов\AppData\Local\Temp\VMBuilds\LAB8_NEW\stm32duino_genericSTM32F103C6\Release\core.a(usb_regs.c.o)
GetEPDblBuf0Addr                                  C:\Users\Данила Кондрашов\AppData\Local\Temp\VMBuilds\LAB8_NEW\stm32duino_genericSTM32F103C6\Release\core.a(usb_regs.c.o)
GetEPDblBuf0Count                                 C:\Users\Данила Кондрашов\AppData\Local\Temp\VMBuilds\LAB8_NEW\stm32duino_genericSTM32F103C6\Release\core.a(usb_regs.c.o)
GetEPDblBuf1Addr                                  C:\Users\Данила Кондрашов\AppData\Local\Temp\VMBuilds\LAB8_NEW\stm32duino_genericSTM32F103C6\Release\core.a(usb_regs.c.o)
GetEPDblBuf1Count                                 C:\Users\Данила Кондрашов\AppData\Local\Temp\VMBuilds\LAB8_NEW\stm32duino_genericSTM32F103C6\Release\core.a(usb_regs.c.o)
GetEPDblBufDir                                    C:\Users\Данила Кондрашов\AppData\Local\Temp\VMBuilds\LAB8_NEW\stm32duino_genericSTM32F103C6\Release\core.a(usb_regs.c.o)
GetEPRxAddr                                       C:\Users\Данила Кондрашов\AppData\Local\Temp\VMBuilds\LAB8_NEW\stm32duino_genericSTM32F103C6\Release\core.a(usb_regs.c.o)
                                                  C:\Users\Данила Кондрашов\AppData\Local\Temp\VMBuilds\LAB8_NEW\stm32duino_genericSTM32F103C6\Release\core.a(usb_core.c.o)
GetEPRxCount                                      C:\Users\Данила Кондрашов\AppData\Local\Temp\VMBuilds\LAB8_NEW\stm32duino_genericSTM32F103C6\Release\core.a(usb_regs.c.o)
GetEPRxStatus                                     C:\Users\Данила Кондрашов\AppData\Local\Temp\VMBuilds\LAB8_NEW\stm32duino_genericSTM32F103C6\Release\core.a(usb_regs.c.o)
GetEPTxAddr                                       C:\Users\Данила Кондрашов\AppData\Local\Temp\VMBuilds\LAB8_NEW\stm32duino_genericSTM32F103C6\Release\core.a(usb_regs.c.o)
                                                  C:\Users\Данила Кондрашов\AppData\Local\Temp\VMBuilds\LAB8_NEW\stm32duino_genericSTM32F103C6\Release\core.a(usb_core.c.o)
GetEPTxCount                                      C:\Users\Данила Кондрашов\AppData\Local\Temp\VMBuilds\LAB8_NEW\stm32duino_genericSTM32F103C6\Release\core.a(usb_regs.c.o)
GetEPTxStatus                                     C:\Users\Данила Кондрашов\AppData\Local\Temp\VMBuilds\LAB8_NEW\stm32duino_genericSTM32F103C6\Release\core.a(usb_regs.c.o)
GetEPType                                         C:\Users\Данила Кондрашов\AppData\Local\Temp\VMBuilds\LAB8_NEW\stm32duino_genericSTM32F103C6\Release\core.a(usb_regs.c.o)
GetFNR                                            C:\Users\Данила Кондрашов\AppData\Local\Temp\VMBuilds\LAB8_NEW\stm32duino_genericSTM32F103C6\Release\core.a(usb_regs.c.o)
GetISTR                                           C:\Users\Данила Кондрашов\AppData\Local\Temp\VMBuilds\LAB8_NEW\stm32duino_genericSTM32F103C6\Release\core.a(usb_regs.c.o)
GetRxStallStatus                                  C:\Users\Данила Кондрашов\AppData\Local\Temp\VMBuilds\LAB8_NEW\stm32duino_genericSTM32F103C6\Release\core.a(usb_regs.c.o)
GetTxStallStatus                                  C:\Users\Данила Кондрашов\AppData\Local\Temp\VMBuilds\LAB8_NEW\stm32duino_genericSTM32F103C6\Release\core.a(usb_regs.c.o)
HardwareSerial::HardwareSerial(usart_dev*, unsigned char, unsigned char) C:\Users\Данила Кондрашов\AppData\Local\Temp\VMBuilds\LAB8_NEW\stm32duino_genericSTM32F103C6\Release\core.a(HardwareSerial.cpp.o)
                                                  C:\Users\Данила Кондрашов\AppData\Local\Temp\VMBCore\arduino16x\1ff78a0346523d7d91af874899f893a8\variant\board.cpp.o
HardwareSerial::HardwareSerial(usart_dev*, unsigned char, unsigned char) C:\Users\Данила Кондрашов\AppData\Local\Temp\VMBuilds\LAB8_NEW\stm32duino_genericSTM32F103C6\Release\core.a(HardwareSerial.cpp.o)
HardwareSerial::available()                       C:\Users\Данила Кондрашов\AppData\Local\Temp\VMBuilds\LAB8_NEW\stm32duino_genericSTM32F103C6\Release\core.a(HardwareSerial.cpp.o)
HardwareSerial::availableForWrite()               C:\Users\Данила Кондрашов\AppData\Local\Temp\VMBuilds\LAB8_NEW\stm32duino_genericSTM32F103C6\Release\core.a(HardwareSerial.cpp.o)
HardwareSerial::begin(unsigned long)              C:\Users\Данила Кондрашов\AppData\Local\Temp\VMBuilds\LAB8_NEW\stm32duino_genericSTM32F103C6\Release\core.a(HardwareSerial.cpp.o)
                                                  LAB8_NEW.cpp.o
HardwareSerial::begin(unsigned long, unsigned char) C:\Users\Данила Кондрашов\AppData\Local\Temp\VMBuilds\LAB8_NEW\stm32duino_genericSTM32F103C6\Release\core.a(HardwareSerial.cpp.o)
HardwareSerial::end()                             C:\Users\Данила Кондрашов\AppData\Local\Temp\VMBuilds\LAB8_NEW\stm32duino_genericSTM32F103C6\Release\core.a(HardwareSerial.cpp.o)
HardwareSerial::flush()                           C:\Users\Данила Кондрашов\AppData\Local\Temp\VMBuilds\LAB8_NEW\stm32duino_genericSTM32F103C6\Release\core.a(HardwareSerial.cpp.o)
HardwareSerial::peek()                            C:\Users\Данила Кондрашов\AppData\Local\Temp\VMBuilds\LAB8_NEW\stm32duino_genericSTM32F103C6\Release\core.a(HardwareSerial.cpp.o)
HardwareSerial::read()                            C:\Users\Данила Кондрашов\AppData\Local\Temp\VMBuilds\LAB8_NEW\stm32duino_genericSTM32F103C6\Release\core.a(HardwareSerial.cpp.o)
HardwareSerial::write(unsigned char)              C:\Users\Данила Кондрашов\AppData\Local\Temp\VMBuilds\LAB8_NEW\stm32duino_genericSTM32F103C6\Release\core.a(HardwareSerial.cpp.o)
HardwareTimer::HardwareTimer(unsigned char)       C:\Users\Данила Кондрашов\AppData\Local\Temp\VMBuilds\LAB8_NEW\stm32duino_genericSTM32F103C6\Release\core.a(HardwareTimer.cpp.o)
HardwareTimer::HardwareTimer(unsigned char)       C:\Users\Данила Кондрашов\AppData\Local\Temp\VMBuilds\LAB8_NEW\stm32duino_genericSTM32F103C6\Release\core.a(HardwareTimer.cpp.o)
                                                  C:\Users\Данила Кондрашов\AppData\Local\Temp\VMBuilds\LAB8_NEW\stm32duino_genericSTM32F103C6\Release\core.a(tone.cpp.o)
HardwareTimer::attachInterrupt(int, void (*)())   C:\Users\Данила Кондрашов\AppData\Local\Temp\VMBuilds\LAB8_NEW\stm32duino_genericSTM32F103C6\Release\core.a(HardwareTimer.cpp.o)
                                                  C:\Users\Данила Кондрашов\AppData\Local\Temp\VMBuilds\LAB8_NEW\stm32duino_genericSTM32F103C6\Release\core.a(tone.cpp.o)
HardwareTimer::detachInterrupt(int)               C:\Users\Данила Кондрашов\AppData\Local\Temp\VMBuilds\LAB8_NEW\stm32duino_genericSTM32F103C6\Release\core.a(HardwareTimer.cpp.o)
                                                  C:\Users\Данила Кондрашов\AppData\Local\Temp\VMBuilds\LAB8_NEW\stm32duino_genericSTM32F103C6\Release\core.a(tone.cpp.o)
HardwareTimer::disableDMA(int)                    C:\Users\Данила Кондрашов\AppData\Local\Temp\VMBuilds\LAB8_NEW\stm32duino_genericSTM32F103C6\Release\core.a(HardwareTimer.cpp.o)
HardwareTimer::enableDMA(int)                     C:\Users\Данила Кондрашов\AppData\Local\Temp\VMBuilds\LAB8_NEW\stm32duino_genericSTM32F103C6\Release\core.a(HardwareTimer.cpp.o)
HardwareTimer::getCompare(int)                    C:\Users\Данила Кондрашов\AppData\Local\Temp\VMBuilds\LAB8_NEW\stm32duino_genericSTM32F103C6\Release\core.a(HardwareTimer.cpp.o)
HardwareTimer::getCount()                         C:\Users\Данила Кондрашов\AppData\Local\Temp\VMBuilds\LAB8_NEW\stm32duino_genericSTM32F103C6\Release\core.a(HardwareTimer.cpp.o)
HardwareTimer::getOverflow()                      C:\Users\Данила Кондрашов\AppData\Local\Temp\VMBuilds\LAB8_NEW\stm32duino_genericSTM32F103C6\Release\core.a(HardwareTimer.cpp.o)
HardwareTimer::getPrescaleFactor()                C:\Users\Данила Кондрашов\AppData\Local\Temp\VMBuilds\LAB8_NEW\stm32duino_genericSTM32F103C6\Release\core.a(HardwareTimer.cpp.o)
HardwareTimer::pause()                            C:\Users\Данила Кондрашов\AppData\Local\Temp\VMBuilds\LAB8_NEW\stm32duino_genericSTM32F103C6\Release\core.a(HardwareTimer.cpp.o)
                                                  C:\Users\Данила Кондрашов\AppData\Local\Temp\VMBuilds\LAB8_NEW\stm32duino_genericSTM32F103C6\Release\core.a(tone.cpp.o)
HardwareTimer::refresh()                          C:\Users\Данила Кондрашов\AppData\Local\Temp\VMBuilds\LAB8_NEW\stm32duino_genericSTM32F103C6\Release\core.a(HardwareTimer.cpp.o)
                                                  C:\Users\Данила Кондрашов\AppData\Local\Temp\VMBuilds\LAB8_NEW\stm32duino_genericSTM32F103C6\Release\core.a(tone.cpp.o)
HardwareTimer::resume()                           C:\Users\Данила Кондрашов\AppData\Local\Temp\VMBuilds\LAB8_NEW\stm32duino_genericSTM32F103C6\Release\core.a(HardwareTimer.cpp.o)
                                                  C:\Users\Данила Кондрашов\AppData\Local\Temp\VMBuilds\LAB8_NEW\stm32duino_genericSTM32F103C6\Release\core.a(tone.cpp.o)
HardwareTimer::setCompare(int, unsigned short)    C:\Users\Данила Кондрашов\AppData\Local\Temp\VMBuilds\LAB8_NEW\stm32duino_genericSTM32F103C6\Release\core.a(HardwareTimer.cpp.o)
                                                  C:\Users\Данила Кондрашов\AppData\Local\Temp\VMBuilds\LAB8_NEW\stm32duino_genericSTM32F103C6\Release\core.a(tone.cpp.o)
HardwareTimer::setCount(unsigned short)           C:\Users\Данила Кондрашов\AppData\Local\Temp\VMBuilds\LAB8_NEW\stm32duino_genericSTM32F103C6\Release\core.a(HardwareTimer.cpp.o)
HardwareTimer::setMasterModeTrGo(unsigned long)   C:\Users\Данила Кондрашов\AppData\Local\Temp\VMBuilds\LAB8_NEW\stm32duino_genericSTM32F103C6\Release\core.a(HardwareTimer.cpp.o)
HardwareTimer::setMode(int, timer_mode)           C:\Users\Данила Кондрашов\AppData\Local\Temp\VMBuilds\LAB8_NEW\stm32duino_genericSTM32F103C6\Release\core.a(HardwareTimer.cpp.o)
                                                  C:\Users\Данила Кондрашов\AppData\Local\Temp\VMBuilds\LAB8_NEW\stm32duino_genericSTM32F103C6\Release\core.a(tone.cpp.o)
HardwareTimer::setOverflow(unsigned short)        C:\Users\Данила Кондрашов\AppData\Local\Temp\VMBuilds\LAB8_NEW\stm32duino_genericSTM32F103C6\Release\core.a(HardwareTimer.cpp.o)
HardwareTimer::setPeriod(unsigned long)           C:\Users\Данила Кондрашов\AppData\Local\Temp\VMBuilds\LAB8_NEW\stm32duino_genericSTM32F103C6\Release\core.a(HardwareTimer.cpp.o)
HardwareTimer::setPrescaleFactor(unsigned long)   C:\Users\Данила Кондрашов\AppData\Local\Temp\VMBuilds\LAB8_NEW\stm32duino_genericSTM32F103C6\Release\core.a(HardwareTimer.cpp.o)
I2C1                                              C:\Users\Данила Кондрашов\AppData\Local\Temp\VMBuilds\LAB8_NEW\stm32duino_genericSTM32F103C6\Release\core.a(i2c_f1.c.o)
                                                  C:\Users\Данила Кондрашов\AppData\Local\Temp\VMBuilds\LAB8_NEW\stm32duino_genericSTM32F103C6\Release\core.a(i2c.c.o)
                                                  Wire\Wire.cpp.o
I2C2                                              C:\Users\Данила Кондрашов\AppData\Local\Temp\VMBuilds\LAB8_NEW\stm32duino_genericSTM32F103C6\Release\core.a(i2c_f1.c.o)
                                                  Wire\Wire.cpp.o
In0_Process                                       C:\Users\Данила Кондрашов\AppData\Local\Temp\VMBuilds\LAB8_NEW\stm32duino_genericSTM32F103C6\Release\core.a(usb_core.c.o)
                                                  C:\Users\Данила Кондрашов\AppData\Local\Temp\VMBuilds\LAB8_NEW\stm32duino_genericSTM32F103C6\Release\core.a(usb.c.o)
M2M_LM75A::M2M_LM75A()                            LM75A_Arduino_library\M2M_LM75A.cpp.o
                                                  LAB8_NEW.cpp.o
M2M_LM75A::M2M_LM75A()                            LM75A_Arduino_library\M2M_LM75A.cpp.o
M2M_LM75A::M2M_LM75A(unsigned char)               LM75A_Arduino_library\M2M_LM75A.cpp.o
M2M_LM75A::M2M_LM75A(unsigned char)               LM75A_Arduino_library\M2M_LM75A.cpp.o
M2M_LM75A::begin()                                LM75A_Arduino_library\M2M_LM75A.cpp.o
                                                  LAB8_NEW.cpp.o
M2M_LM75A::end()                                  LM75A_Arduino_library\M2M_LM75A.cpp.o
M2M_LM75A::getConfig()                            LM75A_Arduino_library\M2M_LM75A.cpp.o
M2M_LM75A::getDeviceMode()                        LM75A_Arduino_library\M2M_LM75A.cpp.o
M2M_LM75A::getFaultQueueValue()                   LM75A_Arduino_library\M2M_LM75A.cpp.o
M2M_LM75A::getHysterisisTemperature()             LM75A_Arduino_library\M2M_LM75A.cpp.o
M2M_LM75A::getOSTripTemperature()                 LM75A_Arduino_library\M2M_LM75A.cpp.o
M2M_LM75A::getOsPolarity()                        LM75A_Arduino_library\M2M_LM75A.cpp.o
M2M_LM75A::getProdId()                            LM75A_Arduino_library\M2M_LM75A.cpp.o
M2M_LM75A::getTemperature()                       LM75A_Arduino_library\M2M_LM75A.cpp.o
                                                  LAB8_NEW.cpp.o
M2M_LM75A::getTemperatureInFarenheit()            LM75A_Arduino_library\M2M_LM75A.cpp.o
M2M_LM75A::isConnected()                          LM75A_Arduino_library\M2M_LM75A.cpp.o
M2M_LM75A::isShutdown()                           LM75A_Arduino_library\M2M_LM75A.cpp.o
M2M_LM75A::read16bitRegister(unsigned char, unsigned short&) LM75A_Arduino_library\M2M_LM75A.cpp.o
M2M_LM75A::read8bitRegister(unsigned char)        LM75A_Arduino_library\M2M_LM75A.cpp.o
M2M_LM75A::setDeviceMode(DeviceMode)              LM75A_Arduino_library\M2M_LM75A.cpp.o
M2M_LM75A::setFaultQueueValue(FaultQueueValue)    LM75A_Arduino_library\M2M_LM75A.cpp.o
M2M_LM75A::setHysterisisTemperature(float)        LM75A_Arduino_library\M2M_LM75A.cpp.o
M2M_LM75A::setOsPolarity(OsPolarity)              LM75A_Arduino_library\M2M_LM75A.cpp.o
M2M_LM75A::setOsTripTemperature(float)            LM75A_Arduino_library\M2M_LM75A.cpp.o
M2M_LM75A::shutdown()                             LM75A_Arduino_library\M2M_LM75A.cpp.o
M2M_LM75A::wakeup()                               LM75A_Arduino_library\M2M_LM75A.cpp.o
M2M_LM75A::write16bitRegister(unsigned char, unsigned short) LM75A_Arduino_library\M2M_LM75A.cpp.o
M2M_LM75A::write8bitRegister(unsigned char, unsigned char) LM75A_Arduino_library\M2M_LM75A.cpp.o
NOP_Process                                       C:\Users\Данила Кондрашов\AppData\Local\Temp\VMBuilds\LAB8_NEW\stm32duino_genericSTM32F103C6\Release\core.a(usb_core.c.o)
                                                  C:\Users\Данила Кондрашов\AppData\Local\Temp\VMBuilds\LAB8_NEW\stm32duino_genericSTM32F103C6\Release\core.a(usb_cdcacm.c.o)
Out0_Process                                      C:\Users\Данила Кондрашов\AppData\Local\Temp\VMBuilds\LAB8_NEW\stm32duino_genericSTM32F103C6\Release\core.a(usb_core.c.o)
                                                  C:\Users\Данила Кондрашов\AppData\Local\Temp\VMBuilds\LAB8_NEW\stm32duino_genericSTM32F103C6\Release\core.a(usb.c.o)
PIN_MAP                                           C:\Users\Данила Кондрашов\AppData\Local\Temp\VMBCore\arduino16x\1ff78a0346523d7d91af874899f893a8\variant\board.cpp.o
                                                  C:\Users\Данила Кондрашов\AppData\Local\Temp\VMBuilds\LAB8_NEW\stm32duino_genericSTM32F103C6\Release\core.a(wirish_digital_f1.cpp.o)
                                                  C:\Users\Данила Кондрашов\AppData\Local\Temp\VMBuilds\LAB8_NEW\stm32duino_genericSTM32F103C6\Release\core.a(wirish_digital.cpp.o)
                                                  C:\Users\Данила Кондрашов\AppData\Local\Temp\VMBuilds\LAB8_NEW\stm32duino_genericSTM32F103C6\Release\core.a(tone.cpp.o)
                                                  C:\Users\Данила Кондрашов\AppData\Local\Temp\VMBuilds\LAB8_NEW\stm32duino_genericSTM32F103C6\Release\core.a(pwm.cpp.o)
                                                  C:\Users\Данила Кондрашов\AppData\Local\Temp\VMBuilds\LAB8_NEW\stm32duino_genericSTM32F103C6\Release\core.a(HardwareSerial.cpp.o)
                                                  Wire\SoftWire.cpp.o
PMAToUserBufferCopy                               C:\Users\Данила Кондрашов\AppData\Local\Temp\VMBuilds\LAB8_NEW\stm32duino_genericSTM32F103C6\Release\core.a(usb_mem.c.o)
                                                  C:\Users\Данила Кондрашов\AppData\Local\Temp\VMBuilds\LAB8_NEW\stm32duino_genericSTM32F103C6\Release\core.a(usb_core.c.o)
Post0_Process                                     C:\Users\Данила Кондрашов\AppData\Local\Temp\VMBuilds\LAB8_NEW\stm32duino_genericSTM32F103C6\Release\core.a(usb_core.c.o)
Print::print(Printable const&)                    C:\Users\Данила Кондрашов\AppData\Local\Temp\VMBuilds\LAB8_NEW\stm32duino_genericSTM32F103C6\Release\core.a(Print.cpp.o)
Print::print(String const&)                       C:\Users\Данила Кондрашов\AppData\Local\Temp\VMBuilds\LAB8_NEW\stm32duino_genericSTM32F103C6\Release\core.a(Print.cpp.o)
Print::print(__FlashStringHelper const*)          C:\Users\Данила Кондрашов\AppData\Local\Temp\VMBuilds\LAB8_NEW\stm32duino_genericSTM32F103C6\Release\core.a(Print.cpp.o)
                                                  LAB8_NEW.cpp.o
Print::print(char const*)                         C:\Users\Данила Кондрашов\AppData\Local\Temp\VMBuilds\LAB8_NEW\stm32duino_genericSTM32F103C6\Release\core.a(Print.cpp.o)
                                                  LAB8_NEW.cpp.o
Print::print(char)                                C:\Users\Данила Кондрашов\AppData\Local\Temp\VMBuilds\LAB8_NEW\stm32duino_genericSTM32F103C6\Release\core.a(Print.cpp.o)
Print::print(double, int)                         C:\Users\Данила Кондрашов\AppData\Local\Temp\VMBuilds\LAB8_NEW\stm32duino_genericSTM32F103C6\Release\core.a(Print.cpp.o)
                                                  LAB8_NEW.cpp.o
Print::print(int, int)                            C:\Users\Данила Кондрашов\AppData\Local\Temp\VMBuilds\LAB8_NEW\stm32duino_genericSTM32F103C6\Release\core.a(Print.cpp.o)
                                                  LAB8_NEW.cpp.o
Print::print(long long, int)                      C:\Users\Данила Кондрашов\AppData\Local\Temp\VMBuilds\LAB8_NEW\stm32duino_genericSTM32F103C6\Release\core.a(Print.cpp.o)
Print::print(long, int)                           C:\Users\Данила Кондрашов\AppData\Local\Temp\VMBuilds\LAB8_NEW\stm32duino_genericSTM32F103C6\Release\core.a(Print.cpp.o)
Print::print(unsigned char, int)                  C:\Users\Данила Кондрашов\AppData\Local\Temp\VMBuilds\LAB8_NEW\stm32duino_genericSTM32F103C6\Release\core.a(Print.cpp.o)
Print::print(unsigned int, int)                   C:\Users\Данила Кондрашов\AppData\Local\Temp\VMBuilds\LAB8_NEW\stm32duino_genericSTM32F103C6\Release\core.a(Print.cpp.o)
Print::print(unsigned long long, int)             C:\Users\Данила Кондрашов\AppData\Local\Temp\VMBuilds\LAB8_NEW\stm32duino_genericSTM32F103C6\Release\core.a(Print.cpp.o)
Print::print(unsigned long, int)                  C:\Users\Данила Кондрашов\AppData\Local\Temp\VMBuilds\LAB8_NEW\stm32duino_genericSTM32F103C6\Release\core.a(Print.cpp.o)
Print::printFloat(double, unsigned char)          C:\Users\Данила Кондрашов\AppData\Local\Temp\VMBuilds\LAB8_NEW\stm32duino_genericSTM32F103C6\Release\core.a(Print.cpp.o)
Print::printNumber(unsigned long long, unsigned char) C:\Users\Данила Кондрашов\AppData\Local\Temp\VMBuilds\LAB8_NEW\stm32duino_genericSTM32F103C6\Release\core.a(Print.cpp.o)
Print::println()                                  C:\Users\Данила Кондрашов\AppData\Local\Temp\VMBuilds\LAB8_NEW\stm32duino_genericSTM32F103C6\Release\core.a(Print.cpp.o)
Print::println(Printable const&)                  C:\Users\Данила Кондрашов\AppData\Local\Temp\VMBuilds\LAB8_NEW\stm32duino_genericSTM32F103C6\Release\core.a(Print.cpp.o)
Print::println(String const&)                     C:\Users\Данила Кондрашов\AppData\Local\Temp\VMBuilds\LAB8_NEW\stm32duino_genericSTM32F103C6\Release\core.a(Print.cpp.o)
Print::println(__FlashStringHelper const*)        C:\Users\Данила Кондрашов\AppData\Local\Temp\VMBuilds\LAB8_NEW\stm32duino_genericSTM32F103C6\Release\core.a(Print.cpp.o)
                                                  LAB8_NEW.cpp.o
Print::println(char const*)                       C:\Users\Данила Кондрашов\AppData\Local\Temp\VMBuilds\LAB8_NEW\stm32duino_genericSTM32F103C6\Release\core.a(Print.cpp.o)
                                                  LAB8_NEW.cpp.o
Print::println(char)                              C:\Users\Данила Кондрашов\AppData\Local\Temp\VMBuilds\LAB8_NEW\stm32duino_genericSTM32F103C6\Release\core.a(Print.cpp.o)
Print::println(double, int)                       C:\Users\Данила Кондрашов\AppData\Local\Temp\VMBuilds\LAB8_NEW\stm32duino_genericSTM32F103C6\Release\core.a(Print.cpp.o)
Print::println(int, int)                          C:\Users\Данила Кондрашов\AppData\Local\Temp\VMBuilds\LAB8_NEW\stm32duino_genericSTM32F103C6\Release\core.a(Print.cpp.o)
Print::println(long long, int)                    C:\Users\Данила Кондрашов\AppData\Local\Temp\VMBuilds\LAB8_NEW\stm32duino_genericSTM32F103C6\Release\core.a(Print.cpp.o)
Print::println(long, int)                         C:\Users\Данила Кондрашов\AppData\Local\Temp\VMBuilds\LAB8_NEW\stm32duino_genericSTM32F103C6\Release\core.a(Print.cpp.o)
Print::println(unsigned char, int)                C:\Users\Данила Кондрашов\AppData\Local\Temp\VMBuilds\LAB8_NEW\stm32duino_genericSTM32F103C6\Release\core.a(Print.cpp.o)
Print::println(unsigned int, int)                 C:\Users\Данила Кондрашов\AppData\Local\Temp\VMBuilds\LAB8_NEW\stm32duino_genericSTM32F103C6\Release\core.a(Print.cpp.o)
Print::println(unsigned long long, int)           C:\Users\Данила Кондрашов\AppData\Local\Temp\VMBuilds\LAB8_NEW\stm32duino_genericSTM32F103C6\Release\core.a(Print.cpp.o)
Print::println(unsigned long, int)                C:\Users\Данила Кондрашов\AppData\Local\Temp\VMBuilds\LAB8_NEW\stm32duino_genericSTM32F103C6\Release\core.a(Print.cpp.o)
Print::write(char const*)                         C:\Users\Данила Кондрашов\AppData\Local\Temp\VMBuilds\LAB8_NEW\stm32duino_genericSTM32F103C6\Release\core.a(Print.cpp.o)
                                                  C:\Users\Данила Кондрашов\AppData\Local\Temp\VMBuilds\LAB8_NEW\stm32duino_genericSTM32F103C6\Release\core.a(HardwareSerial.cpp.o)
Print::write(void const*, unsigned long)          C:\Users\Данила Кондрашов\AppData\Local\Temp\VMBuilds\LAB8_NEW\stm32duino_genericSTM32F103C6\Release\core.a(Print.cpp.o)
                                                  C:\Users\Данила Кондрашов\AppData\Local\Temp\VMBuilds\LAB8_NEW\stm32duino_genericSTM32F103C6\Release\core.a(HardwareSerial.cpp.o)
ResumeS                                           C:\Users\Данила Кондрашов\AppData\Local\Temp\VMBuilds\LAB8_NEW\stm32duino_genericSTM32F103C6\Release\core.a(usb.c.o)
SaveRState                                        C:\Users\Данила Кондрашов\AppData\Local\Temp\VMBuilds\LAB8_NEW\stm32duino_genericSTM32F103C6\Release\core.a(usb_core.c.o)
                                                  C:\Users\Данила Кондрашов\AppData\Local\Temp\VMBuilds\LAB8_NEW\stm32duino_genericSTM32F103C6\Release\core.a(usb.c.o)
SaveState                                         C:\Users\Данила Кондрашов\AppData\Local\Temp\VMBuilds\LAB8_NEW\stm32duino_genericSTM32F103C6\Release\core.a(usb_init.c.o)
SaveTState                                        C:\Users\Данила Кондрашов\AppData\Local\Temp\VMBuilds\LAB8_NEW\stm32duino_genericSTM32F103C6\Release\core.a(usb_core.c.o)
                                                  C:\Users\Данила Кондрашов\AppData\Local\Temp\VMBuilds\LAB8_NEW\stm32duino_genericSTM32F103C6\Release\core.a(usb.c.o)
Serial1                                           C:\Users\Данила Кондрашов\AppData\Local\Temp\VMBCore\arduino16x\1ff78a0346523d7d91af874899f893a8\variant\board.cpp.o
                                                  LAB8_NEW.cpp.o
Serial2                                           C:\Users\Данила Кондрашов\AppData\Local\Temp\VMBCore\arduino16x\1ff78a0346523d7d91af874899f893a8\variant\board.cpp.o
Serial3                                           C:\Users\Данила Кондрашов\AppData\Local\Temp\VMBCore\arduino16x\1ff78a0346523d7d91af874899f893a8\variant\board.cpp.o
SetBTABLE                                         C:\Users\Данила Кондрашов\AppData\Local\Temp\VMBuilds\LAB8_NEW\stm32duino_genericSTM32F103C6\Release\core.a(usb_regs.c.o)
SetCNTR                                           C:\Users\Данила Кондрашов\AppData\Local\Temp\VMBuilds\LAB8_NEW\stm32duino_genericSTM32F103C6\Release\core.a(usb_regs.c.o)
SetDADDR                                          C:\Users\Данила Кондрашов\AppData\Local\Temp\VMBuilds\LAB8_NEW\stm32duino_genericSTM32F103C6\Release\core.a(usb_regs.c.o)
SetDeviceAddress                                  C:\Users\Данила Кондрашов\AppData\Local\Temp\VMBuilds\LAB8_NEW\stm32duino_genericSTM32F103C6\Release\core.a(usb_core.c.o)
                                                  C:\Users\Данила Кондрашов\AppData\Local\Temp\VMBuilds\LAB8_NEW\stm32duino_genericSTM32F103C6\Release\core.a(usb_cdcacm.c.o)
SetDouBleBuffEPStall                              C:\Users\Данила Кондрашов\AppData\Local\Temp\VMBuilds\LAB8_NEW\stm32duino_genericSTM32F103C6\Release\core.a(usb_regs.c.o)
SetENDPOINT                                       C:\Users\Данила Кондрашов\AppData\Local\Temp\VMBuilds\LAB8_NEW\stm32duino_genericSTM32F103C6\Release\core.a(usb_regs.c.o)
SetEPAddress                                      C:\Users\Данила Кондрашов\AppData\Local\Temp\VMBuilds\LAB8_NEW\stm32duino_genericSTM32F103C6\Release\core.a(usb_regs.c.o)
SetEPCountRxReg                                   C:\Users\Данила Кондрашов\AppData\Local\Temp\VMBuilds\LAB8_NEW\stm32duino_genericSTM32F103C6\Release\core.a(usb_regs.c.o)
SetEPDblBuf0Addr                                  C:\Users\Данила Кондрашов\AppData\Local\Temp\VMBuilds\LAB8_NEW\stm32duino_genericSTM32F103C6\Release\core.a(usb_regs.c.o)
SetEPDblBuf0Count                                 C:\Users\Данила Кондрашов\AppData\Local\Temp\VMBuilds\LAB8_NEW\stm32duino_genericSTM32F103C6\Release\core.a(usb_regs.c.o)
SetEPDblBuf1Addr                                  C:\Users\Данила Кондрашов\AppData\Local\Temp\VMBuilds\LAB8_NEW\stm32duino_genericSTM32F103C6\Release\core.a(usb_regs.c.o)
SetEPDblBuf1Count                                 C:\Users\Данила Кондрашов\AppData\Local\Temp\VMBuilds\LAB8_NEW\stm32duino_genericSTM32F103C6\Release\core.a(usb_regs.c.o)
SetEPDblBuffAddr                                  C:\Users\Данила Кондрашов\AppData\Local\Temp\VMBuilds\LAB8_NEW\stm32duino_genericSTM32F103C6\Release\core.a(usb_regs.c.o)
SetEPDblBuffCount                                 C:\Users\Данила Кондрашов\AppData\Local\Temp\VMBuilds\LAB8_NEW\stm32duino_genericSTM32F103C6\Release\core.a(usb_regs.c.o)
SetEPDoubleBuff                                   C:\Users\Данила Кондрашов\AppData\Local\Temp\VMBuilds\LAB8_NEW\stm32duino_genericSTM32F103C6\Release\core.a(usb_regs.c.o)
SetEPRxAddr                                       C:\Users\Данила Кондрашов\AppData\Local\Temp\VMBuilds\LAB8_NEW\stm32duino_genericSTM32F103C6\Release\core.a(usb_regs.c.o)
SetEPRxCount                                      C:\Users\Данила Кондрашов\AppData\Local\Temp\VMBuilds\LAB8_NEW\stm32duino_genericSTM32F103C6\Release\core.a(usb_regs.c.o)
                                                  C:\Users\Данила Кондрашов\AppData\Local\Temp\VMBuilds\LAB8_NEW\stm32duino_genericSTM32F103C6\Release\core.a(usb_core.c.o)
SetEPRxStatus                                     C:\Users\Данила Кондрашов\AppData\Local\Temp\VMBuilds\LAB8_NEW\stm32duino_genericSTM32F103C6\Release\core.a(usb_regs.c.o)
SetEPRxValid                                      C:\Users\Данила Кондрашов\AppData\Local\Temp\VMBuilds\LAB8_NEW\stm32duino_genericSTM32F103C6\Release\core.a(usb_regs.c.o)
SetEPTxAddr                                       C:\Users\Данила Кондрашов\AppData\Local\Temp\VMBuilds\LAB8_NEW\stm32duino_genericSTM32F103C6\Release\core.a(usb_regs.c.o)
SetEPTxCount                                      C:\Users\Данила Кондрашов\AppData\Local\Temp\VMBuilds\LAB8_NEW\stm32duino_genericSTM32F103C6\Release\core.a(usb_regs.c.o)
                                                  C:\Users\Данила Кондрашов\AppData\Local\Temp\VMBuilds\LAB8_NEW\stm32duino_genericSTM32F103C6\Release\core.a(usb_core.c.o)
SetEPTxStatus                                     C:\Users\Данила Кондрашов\AppData\Local\Temp\VMBuilds\LAB8_NEW\stm32duino_genericSTM32F103C6\Release\core.a(usb_regs.c.o)
                                                  C:\Users\Данила Кондрашов\AppData\Local\Temp\VMBuilds\LAB8_NEW\stm32duino_genericSTM32F103C6\Release\core.a(usb_core.c.o)
SetEPTxValid                                      C:\Users\Данила Кондрашов\AppData\Local\Temp\VMBuilds\LAB8_NEW\stm32duino_genericSTM32F103C6\Release\core.a(usb_regs.c.o)
SetEPType                                         C:\Users\Данила Кондрашов\AppData\Local\Temp\VMBuilds\LAB8_NEW\stm32duino_genericSTM32F103C6\Release\core.a(usb_regs.c.o)
SetEP_KIND                                        C:\Users\Данила Кондрашов\AppData\Local\Temp\VMBuilds\LAB8_NEW\stm32duino_genericSTM32F103C6\Release\core.a(usb_regs.c.o)
SetISTR                                           C:\Users\Данила Кондрашов\AppData\Local\Temp\VMBuilds\LAB8_NEW\stm32duino_genericSTM32F103C6\Release\core.a(usb_regs.c.o)
Set_Status_Out                                    C:\Users\Данила Кондрашов\AppData\Local\Temp\VMBuilds\LAB8_NEW\stm32duino_genericSTM32F103C6\Release\core.a(usb_regs.c.o)
Setup0_Process                                    C:\Users\Данила Кондрашов\AppData\Local\Temp\VMBuilds\LAB8_NEW\stm32duino_genericSTM32F103C6\Release\core.a(usb_core.c.o)
                                                  C:\Users\Данила Кондрашов\AppData\Local\Temp\VMBuilds\LAB8_NEW\stm32duino_genericSTM32F103C6\Release\core.a(usb.c.o)
SoftWire::SoftWire(unsigned char, unsigned char, unsigned char) Wire\SoftWire.cpp.o
SoftWire::SoftWire(unsigned char, unsigned char, unsigned char) Wire\SoftWire.cpp.o
SoftWire::begin(unsigned char)                    Wire\SoftWire.cpp.o
SoftWire::end()                                   Wire\SoftWire.cpp.o
SoftWire::i2c_get_ack()                           Wire\SoftWire.cpp.o
SoftWire::i2c_repeated_start()                    Wire\SoftWire.cpp.o
SoftWire::i2c_send_ack()                          Wire\SoftWire.cpp.o
SoftWire::i2c_send_nack()                         Wire\SoftWire.cpp.o
SoftWire::i2c_shift_in()                          Wire\SoftWire.cpp.o
SoftWire::i2c_shift_out(unsigned char)            Wire\SoftWire.cpp.o
SoftWire::i2c_start()                             Wire\SoftWire.cpp.o
SoftWire::i2c_stop()                              Wire\SoftWire.cpp.o
SoftWire::process()                               Wire\SoftWire.cpp.o
SoftWire::process(unsigned char)                  Wire\SoftWire.cpp.o
SoftWire::setClock(unsigned long)                 Wire\SoftWire.cpp.o
SoftWire::set_scl(bool)                           Wire\SoftWire.cpp.o
SoftWire::set_sda(bool)                           Wire\SoftWire.cpp.o
SoftWire::~SoftWire()                             Wire\SoftWire.cpp.o
SoftWire::~SoftWire()                             Wire\SoftWire.cpp.o
Standard_ClearFeature                             C:\Users\Данила Кондрашов\AppData\Local\Temp\VMBuilds\LAB8_NEW\stm32duino_genericSTM32F103C6\Release\core.a(usb_core.c.o)
Standard_GetConfiguration                         C:\Users\Данила Кондрашов\AppData\Local\Temp\VMBuilds\LAB8_NEW\stm32duino_genericSTM32F103C6\Release\core.a(usb_core.c.o)
Standard_GetDescriptorData                        C:\Users\Данила Кондрашов\AppData\Local\Temp\VMBuilds\LAB8_NEW\stm32duino_genericSTM32F103C6\Release\core.a(usb_core.c.o)
                                                  C:\Users\Данила Кондрашов\AppData\Local\Temp\VMBuilds\LAB8_NEW\stm32duino_genericSTM32F103C6\Release\core.a(usb_cdcacm.c.o)
Standard_GetInterface                             C:\Users\Данила Кондрашов\AppData\Local\Temp\VMBuilds\LAB8_NEW\stm32duino_genericSTM32F103C6\Release\core.a(usb_core.c.o)
Standard_GetStatus                                C:\Users\Данила Кондрашов\AppData\Local\Temp\VMBuilds\LAB8_NEW\stm32duino_genericSTM32F103C6\Release\core.a(usb_core.c.o)
Standard_SetConfiguration                         C:\Users\Данила Кондрашов\AppData\Local\Temp\VMBuilds\LAB8_NEW\stm32duino_genericSTM32F103C6\Release\core.a(usb_core.c.o)
Standard_SetDeviceFeature                         C:\Users\Данила Кондрашов\AppData\Local\Temp\VMBuilds\LAB8_NEW\stm32duino_genericSTM32F103C6\Release\core.a(usb_core.c.o)
Standard_SetEndPointFeature                       C:\Users\Данила Кондрашов\AppData\Local\Temp\VMBuilds\LAB8_NEW\stm32duino_genericSTM32F103C6\Release\core.a(usb_core.c.o)
Standard_SetInterface                             C:\Users\Данила Кондрашов\AppData\Local\Temp\VMBuilds\LAB8_NEW\stm32duino_genericSTM32F103C6\Release\core.a(usb_core.c.o)
StatusInfo                                        C:\Users\Данила Кондрашов\AppData\Local\Temp\VMBuilds\LAB8_NEW\stm32duino_genericSTM32F103C6\Release\core.a(usb_core.c.o)
TIMER1                                            C:\Users\Данила Кондрашов\AppData\Local\Temp\VMBuilds\LAB8_NEW\stm32duino_genericSTM32F103C6\Release\core.a(timer.c.o)
TIMER2                                            C:\Users\Данила Кондрашов\AppData\Local\Temp\VMBuilds\LAB8_NEW\stm32duino_genericSTM32F103C6\Release\core.a(timer.c.o)
TIMER3                                            C:\Users\Данила Кондрашов\AppData\Local\Temp\VMBuilds\LAB8_NEW\stm32duino_genericSTM32F103C6\Release\core.a(timer.c.o)
TIMER4                                            C:\Users\Данила Кондрашов\AppData\Local\Temp\VMBuilds\LAB8_NEW\stm32duino_genericSTM32F103C6\Release\core.a(timer.c.o)
TTimer                                            C:\Users\Данила Кондрашов\AppData\Local\Temp\VMBuilds\LAB8_NEW\stm32duino_genericSTM32F103C6\Release\core.a(tone.cpp.o)
TTimer1                                           C:\Users\Данила Кондрашов\AppData\Local\Temp\VMBuilds\LAB8_NEW\stm32duino_genericSTM32F103C6\Release\core.a(tone.cpp.o)
TTimer2                                           C:\Users\Данила Кондрашов\AppData\Local\Temp\VMBuilds\LAB8_NEW\stm32duino_genericSTM32F103C6\Release\core.a(tone.cpp.o)
TTimer3                                           C:\Users\Данила Кондрашов\AppData\Local\Temp\VMBuilds\LAB8_NEW\stm32duino_genericSTM32F103C6\Release\core.a(tone.cpp.o)
TTimer4                                           C:\Users\Данила Кондрашов\AppData\Local\Temp\VMBuilds\LAB8_NEW\stm32duino_genericSTM32F103C6\Release\core.a(tone.cpp.o)
Timer1                                            C:\Users\Данила Кондрашов\AppData\Local\Temp\VMBuilds\LAB8_NEW\stm32duino_genericSTM32F103C6\Release\core.a(HardwareTimer.cpp.o)
Timer2                                            C:\Users\Данила Кондрашов\AppData\Local\Temp\VMBuilds\LAB8_NEW\stm32duino_genericSTM32F103C6\Release\core.a(HardwareTimer.cpp.o)
Timer3                                            C:\Users\Данила Кондрашов\AppData\Local\Temp\VMBuilds\LAB8_NEW\stm32duino_genericSTM32F103C6\Release\core.a(HardwareTimer.cpp.o)
Timer4                                            C:\Users\Данила Кондрашов\AppData\Local\Temp\VMBuilds\LAB8_NEW\stm32duino_genericSTM32F103C6\Release\core.a(HardwareTimer.cpp.o)
ToWord                                            C:\Users\Данила Кондрашов\AppData\Local\Temp\VMBuilds\LAB8_NEW\stm32duino_genericSTM32F103C6\Release\core.a(usb_regs.c.o)
ToggleDTOG_RX                                     C:\Users\Данила Кондрашов\AppData\Local\Temp\VMBuilds\LAB8_NEW\stm32duino_genericSTM32F103C6\Release\core.a(usb_regs.c.o)
ToggleDTOG_TX                                     C:\Users\Данила Кондрашов\AppData\Local\Temp\VMBuilds\LAB8_NEW\stm32duino_genericSTM32F103C6\Release\core.a(usb_regs.c.o)
TwoWire::TwoWire(unsigned char, unsigned char, unsigned long) Wire\Wire.cpp.o
TwoWire::TwoWire(unsigned char, unsigned char, unsigned long) Wire\Wire.cpp.o
TwoWire::begin(unsigned char)                     Wire\Wire.cpp.o
                                                  LM75A_Arduino_library\M2M_LM75A.cpp.o
TwoWire::end()                                    Wire\Wire.cpp.o
                                                  LM75A_Arduino_library\M2M_LM75A.cpp.o
TwoWire::process()                                Wire\Wire.cpp.o
TwoWire::process(unsigned char)                   Wire\Wire.cpp.o
TwoWire::setClock(unsigned long)                  Wire\Wire.cpp.o
TwoWire::~TwoWire()                               Wire\Wire.cpp.o
TwoWire::~TwoWire()                               Wire\Wire.cpp.o
USART1                                            C:\Users\Данила Кондрашов\AppData\Local\Temp\VMBuilds\LAB8_NEW\stm32duino_genericSTM32F103C6\Release\core.a(usart_f1.c.o)
                                                  C:\Users\Данила Кондрашов\AppData\Local\Temp\VMBCore\arduino16x\1ff78a0346523d7d91af874899f893a8\variant\board.cpp.o
USART2                                            C:\Users\Данила Кондрашов\AppData\Local\Temp\VMBuilds\LAB8_NEW\stm32duino_genericSTM32F103C6\Release\core.a(usart_f1.c.o)
                                                  C:\Users\Данила Кондрашов\AppData\Local\Temp\VMBCore\arduino16x\1ff78a0346523d7d91af874899f893a8\variant\board.cpp.o
USART3                                            C:\Users\Данила Кондрашов\AppData\Local\Temp\VMBuilds\LAB8_NEW\stm32duino_genericSTM32F103C6\Release\core.a(usart_f1.c.o)
                                                  C:\Users\Данила Кондрашов\AppData\Local\Temp\VMBCore\arduino16x\1ff78a0346523d7d91af874899f893a8\variant\board.cpp.o
USBLIB                                            C:\Users\Данила Кондрашов\AppData\Local\Temp\VMBuilds\LAB8_NEW\stm32duino_genericSTM32F103C6\Release\core.a(usb.c.o)
                                                  C:\Users\Данила Кондрашов\AppData\Local\Temp\VMBuilds\LAB8_NEW\stm32duino_genericSTM32F103C6\Release\core.a(usb_cdcacm.c.o)
USB_Init                                          C:\Users\Данила Кондрашов\AppData\Local\Temp\VMBuilds\LAB8_NEW\stm32duino_genericSTM32F103C6\Release\core.a(usb_init.c.o)
UserToPMABufferCopy                               C:\Users\Данила Кондрашов\AppData\Local\Temp\VMBuilds\LAB8_NEW\stm32duino_genericSTM32F103C6\Release\core.a(usb_mem.c.o)
                                                  C:\Users\Данила Кондрашов\AppData\Local\Temp\VMBuilds\LAB8_NEW\stm32duino_genericSTM32F103C6\Release\core.a(usb_core.c.o)
User_Standard_Requests                            C:\Users\Данила Кондрашов\AppData\Local\Temp\VMBuilds\LAB8_NEW\stm32duino_genericSTM32F103C6\Release\core.a(usb_cdcacm.c.o)
                                                  C:\Users\Данила Кондрашов\AppData\Local\Temp\VMBuilds\LAB8_NEW\stm32duino_genericSTM32F103C6\Release\core.a(usb_init.c.o)
                                                  C:\Users\Данила Кондрашов\AppData\Local\Temp\VMBuilds\LAB8_NEW\stm32duino_genericSTM32F103C6\Release\core.a(usb.c.o)
Wire                                              Wire\Wire.cpp.o
                                                  LM75A_Arduino_library\M2M_LM75A.cpp.o
WireBase::available()                             Wire\utility\WireBase.cpp.o
WireBase::begin(unsigned char)                    Wire\utility\WireBase.cpp.o
WireBase::beginTransmission(int)                  Wire\utility\WireBase.cpp.o
WireBase::beginTransmission(unsigned char)        Wire\utility\WireBase.cpp.o
                                                  LM75A_Arduino_library\M2M_LM75A.cpp.o
WireBase::end()                                   Wire\utility\WireBase.cpp.o
WireBase::endTransmission()                       Wire\utility\WireBase.cpp.o
                                                  LM75A_Arduino_library\M2M_LM75A.cpp.o
WireBase::endTransmission(bool)                   Wire\utility\WireBase.cpp.o
WireBase::read()                                  Wire\utility\WireBase.cpp.o
                                                  LM75A_Arduino_library\M2M_LM75A.cpp.o
WireBase::requestFrom(int, int, bool)             Wire\utility\WireBase.cpp.o
WireBase::requestFrom(unsigned char, int, bool)   Wire\utility\WireBase.cpp.o
                                                  LM75A_Arduino_library\M2M_LM75A.cpp.o
WireBase::write(char*)                            Wire\utility\WireBase.cpp.o
WireBase::write(int)                              Wire\utility\WireBase.cpp.o
WireBase::write(int*, int)                        Wire\utility\WireBase.cpp.o
WireBase::write(unsigned char)                    Wire\utility\WireBase.cpp.o
                                                  LM75A_Arduino_library\M2M_LM75A.cpp.o
WireBase::write(unsigned char*, int)              Wire\utility\WireBase.cpp.o
_Jv_RegisterClasses                               c:/users/данила кондрашов/appdata/local/arduino15/packages/arduino/tools/arm-none-eabi-gcc/4.8.3-2014q1/bin/../lib/gcc/arm-none-eabi/4.8.3/armv7-m/crtbegin.o
__adddf3                                          c:/users/данила кондрашов/appdata/local/arduino15/packages/arduino/tools/arm-none-eabi-gcc/4.8.3-2014q1/bin/../lib/gcc/arm-none-eabi/4.8.3/armv7-m\libgcc.a(_arm_addsubdf3.o)
__addsf3                                          c:/users/данила кондрашов/appdata/local/arduino15/packages/arduino/tools/arm-none-eabi-gcc/4.8.3-2014q1/bin/../lib/gcc/arm-none-eabi/4.8.3/armv7-m\libgcc.a(_arm_addsubsf3.o)
__aeabi_cdcmpeq                                   c:/users/данила кондрашов/appdata/local/arduino15/packages/arduino/tools/arm-none-eabi-gcc/4.8.3-2014q1/bin/../lib/gcc/arm-none-eabi/4.8.3/armv7-m\libgcc.a(_arm_cmpdf2.o)
__aeabi_cdcmple                                   c:/users/данила кондрашов/appdata/local/arduino15/packages/arduino/tools/arm-none-eabi-gcc/4.8.3-2014q1/bin/../lib/gcc/arm-none-eabi/4.8.3/armv7-m\libgcc.a(_arm_cmpdf2.o)
__aeabi_cdrcmple                                  c:/users/данила кондрашов/appdata/local/arduino15/packages/arduino/tools/arm-none-eabi-gcc/4.8.3-2014q1/bin/../lib/gcc/arm-none-eabi/4.8.3/armv7-m\libgcc.a(_arm_cmpdf2.o)
__aeabi_d2iz                                      c:/users/данила кондрашов/appdata/local/arduino15/packages/arduino/tools/arm-none-eabi-gcc/4.8.3-2014q1/bin/../lib/gcc/arm-none-eabi/4.8.3/armv7-m\libgcc.a(_arm_fixdfsi.o)
                                                  C:\Users\Данила Кондрашов\AppData\Local\Temp\VMBuilds\LAB8_NEW\stm32duino_genericSTM32F103C6\Release\core.a(Print.cpp.o)
                                                  LAB8_NEW.cpp.o
__aeabi_d2lz                                      c:/users/данила кондрашов/appdata/local/arduino15/packages/arduino/tools/arm-none-eabi-gcc/4.8.3-2014q1/bin/../lib/gcc/arm-none-eabi/4.8.3/armv7-m\libgcc.a(_fixdfdi.o)
                                                  C:\Users\Данила Кондрашов\AppData\Local\Temp\VMBuilds\LAB8_NEW\stm32duino_genericSTM32F103C6\Release\core.a(Print.cpp.o)
__aeabi_d2uiz                                     c:/users/данила кондрашов/appdata/local/arduino15/packages/arduino/tools/arm-none-eabi-gcc/4.8.3-2014q1/bin/../lib/gcc/arm-none-eabi/4.8.3/armv7-m\libgcc.a(_arm_fixunsdfsi.o)
                                                  c:/users/данила кондрашов/appdata/local/arduino15/packages/arduino/tools/arm-none-eabi-gcc/4.8.3-2014q1/bin/../lib/gcc/arm-none-eabi/4.8.3/armv7-m\libgcc.a(_fixunsdfdi.o)
__aeabi_d2ulz                                     c:/users/данила кондрашов/appdata/local/arduino15/packages/arduino/tools/arm-none-eabi-gcc/4.8.3-2014q1/bin/../lib/gcc/arm-none-eabi/4.8.3/armv7-m\libgcc.a(_fixunsdfdi.o)
                                                  c:/users/данила кондрашов/appdata/local/arduino15/packages/arduino/tools/arm-none-eabi-gcc/4.8.3-2014q1/bin/../lib/gcc/arm-none-eabi/4.8.3/armv7-m\libgcc.a(_fixdfdi.o)
__aeabi_dadd                                      c:/users/данила кондрашов/appdata/local/arduino15/packages/arduino/tools/arm-none-eabi-gcc/4.8.3-2014q1/bin/../lib/gcc/arm-none-eabi/4.8.3/armv7-m\libgcc.a(_arm_addsubdf3.o)
                                                  C:\Users\Данила Кондрашов\AppData\Local\Temp\VMBuilds\LAB8_NEW\stm32duino_genericSTM32F103C6\Release\core.a(Print.cpp.o)
__aeabi_dcmpeq                                    c:/users/данила кондрашов/appdata/local/arduino15/packages/arduino/tools/arm-none-eabi-gcc/4.8.3-2014q1/bin/../lib/gcc/arm-none-eabi/4.8.3/armv7-m\libgcc.a(_arm_cmpdf2.o)
__aeabi_dcmpge                                    c:/users/данила кондрашов/appdata/local/arduino15/packages/arduino/tools/arm-none-eabi-gcc/4.8.3-2014q1/bin/../lib/gcc/arm-none-eabi/4.8.3/armv7-m\libgcc.a(_arm_cmpdf2.o)
                                                  C:\Users\Данила Кондрашов\AppData\Local\Temp\VMBuilds\LAB8_NEW\stm32duino_genericSTM32F103C6\Release\core.a(Print.cpp.o)
                                                  LAB8_NEW.cpp.o
__aeabi_dcmpgt                                    c:/users/данила кондрашов/appdata/local/arduino15/packages/arduino/tools/arm-none-eabi-gcc/4.8.3-2014q1/bin/../lib/gcc/arm-none-eabi/4.8.3/armv7-m\libgcc.a(_arm_cmpdf2.o)
                                                  C:\Users\Данила Кондрашов\AppData\Local\Temp\VMBuilds\LAB8_NEW\stm32duino_genericSTM32F103C6\Release\core.a(Print.cpp.o)
__aeabi_dcmple                                    c:/users/данила кондрашов/appdata/local/arduino15/packages/arduino/tools/arm-none-eabi-gcc/4.8.3-2014q1/bin/../lib/gcc/arm-none-eabi/4.8.3/armv7-m\libgcc.a(_arm_cmpdf2.o)
                                                  C:\Users\Данила Кондрашов\AppData\Local\Temp\VMBuilds\LAB8_NEW\stm32duino_genericSTM32F103C6\Release\core.a(Print.cpp.o)
                                                  LAB8_NEW.cpp.o
__aeabi_dcmplt                                    c:/users/данила кондрашов/appdata/local/arduino15/packages/arduino/tools/arm-none-eabi-gcc/4.8.3-2014q1/bin/../lib/gcc/arm-none-eabi/4.8.3/armv7-m\libgcc.a(_arm_cmpdf2.o)
                                                  c:/users/данила кондрашов/appdata/local/arduino15/packages/arduino/tools/arm-none-eabi-gcc/4.8.3-2014q1/bin/../lib/gcc/arm-none-eabi/4.8.3/armv7-m\libgcc.a(_fixdfdi.o)
                                                  C:\Users\Данила Кондрашов\AppData\Local\Temp\VMBuilds\LAB8_NEW\stm32duino_genericSTM32F103C6\Release\core.a(Print.cpp.o)
                                                  LAB8_NEW.cpp.o
__aeabi_ddiv                                      c:/users/данила кондрашов/appdata/local/arduino15/packages/arduino/tools/arm-none-eabi-gcc/4.8.3-2014q1/bin/../lib/gcc/arm-none-eabi/4.8.3/armv7-m\libgcc.a(_arm_muldivdf3.o)
                                                  C:\Users\Данила Кондрашов\AppData\Local\Temp\VMBuilds\LAB8_NEW\stm32duino_genericSTM32F103C6\Release\core.a(Print.cpp.o)
__aeabi_dmul                                      c:/users/данила кондрашов/appdata/local/arduino15/packages/arduino/tools/arm-none-eabi-gcc/4.8.3-2014q1/bin/../lib/gcc/arm-none-eabi/4.8.3/armv7-m\libgcc.a(_arm_muldivdf3.o)
                                                  c:/users/данила кондрашов/appdata/local/arduino15/packages/arduino/tools/arm-none-eabi-gcc/4.8.3-2014q1/bin/../lib/gcc/arm-none-eabi/4.8.3/armv7-m\libgcc.a(_fixunsdfdi.o)
                                                  C:\Users\Данила Кондрашов\AppData\Local\Temp\VMBuilds\LAB8_NEW\stm32duino_genericSTM32F103C6\Release\core.a(Print.cpp.o)
                                                  LAB8_NEW.cpp.o
__aeabi_drsub                                     c:/users/данила кондрашов/appdata/local/arduino15/packages/arduino/tools/arm-none-eabi-gcc/4.8.3-2014q1/bin/../lib/gcc/arm-none-eabi/4.8.3/armv7-m\libgcc.a(_arm_addsubdf3.o)
__aeabi_dsub                                      c:/users/данила кондрашов/appdata/local/arduino15/packages/arduino/tools/arm-none-eabi-gcc/4.8.3-2014q1/bin/../lib/gcc/arm-none-eabi/4.8.3/armv7-m\libgcc.a(_arm_addsubdf3.o)
                                                  c:/users/данила кондрашов/appdata/local/arduino15/packages/arduino/tools/arm-none-eabi-gcc/4.8.3-2014q1/bin/../lib/gcc/arm-none-eabi/4.8.3/armv7-m\libgcc.a(_fixunsdfdi.o)
                                                  C:\Users\Данила Кондрашов\AppData\Local\Temp\VMBuilds\LAB8_NEW\stm32duino_genericSTM32F103C6\Release\core.a(Print.cpp.o)
                                                  LAB8_NEW.cpp.o
__aeabi_f2d                                       c:/users/данила кондрашов/appdata/local/arduino15/packages/arduino/tools/arm-none-eabi-gcc/4.8.3-2014q1/bin/../lib/gcc/arm-none-eabi/4.8.3/armv7-m\libgcc.a(_arm_addsubdf3.o)
                                                  LAB8_NEW.cpp.o
__aeabi_f2uiz                                     c:/users/данила кондрашов/appdata/local/arduino15/packages/arduino/tools/arm-none-eabi-gcc/4.8.3-2014q1/bin/../lib/gcc/arm-none-eabi/4.8.3/armv7-m\libgcc.a(_arm_fixunssfsi.o)
                                                  LM75A_Arduino_library\M2M_LM75A.cpp.o
__aeabi_fadd                                      c:/users/данила кондрашов/appdata/local/arduino15/packages/arduino/tools/arm-none-eabi-gcc/4.8.3-2014q1/bin/../lib/gcc/arm-none-eabi/4.8.3/armv7-m\libgcc.a(_arm_addsubsf3.o)
                                                  LM75A_Arduino_library\M2M_LM75A.cpp.o
__aeabi_fdiv                                      c:/users/данила кондрашов/appdata/local/arduino15/packages/arduino/tools/arm-none-eabi-gcc/4.8.3-2014q1/bin/../lib/gcc/arm-none-eabi/4.8.3/armv7-m\libgcc.a(_arm_muldivsf3.o)
                                                  LM75A_Arduino_library\M2M_LM75A.cpp.o
__aeabi_fmul                                      c:/users/данила кондрашов/appdata/local/arduino15/packages/arduino/tools/arm-none-eabi-gcc/4.8.3-2014q1/bin/../lib/gcc/arm-none-eabi/4.8.3/armv7-m\libgcc.a(_arm_muldivsf3.o)
                                                  LM75A_Arduino_library\M2M_LM75A.cpp.o
__aeabi_frsub                                     c:/users/данила кондрашов/appdata/local/arduino15/packages/arduino/tools/arm-none-eabi-gcc/4.8.3-2014q1/bin/../lib/gcc/arm-none-eabi/4.8.3/armv7-m\libgcc.a(_arm_addsubsf3.o)
__aeabi_fsub                                      c:/users/данила кондрашов/appdata/local/arduino15/packages/arduino/tools/arm-none-eabi-gcc/4.8.3-2014q1/bin/../lib/gcc/arm-none-eabi/4.8.3/armv7-m\libgcc.a(_arm_addsubsf3.o)
__aeabi_i2d                                       c:/users/данила кондрашов/appdata/local/arduino15/packages/arduino/tools/arm-none-eabi-gcc/4.8.3-2014q1/bin/../lib/gcc/arm-none-eabi/4.8.3/armv7-m\libgcc.a(_arm_addsubdf3.o)
                                                  C:\Users\Данила Кондрашов\AppData\Local\Temp\VMBuilds\LAB8_NEW\stm32duino_genericSTM32F103C6\Release\core.a(Print.cpp.o)
__aeabi_i2f                                       c:/users/данила кондрашов/appdata/local/arduino15/packages/arduino/tools/arm-none-eabi-gcc/4.8.3-2014q1/bin/../lib/gcc/arm-none-eabi/4.8.3/armv7-m\libgcc.a(_arm_addsubsf3.o)
                                                  LM75A_Arduino_library\M2M_LM75A.cpp.o
__aeabi_idiv0                                     c:/users/данила кондрашов/appdata/local/arduino15/packages/arduino/tools/arm-none-eabi-gcc/4.8.3-2014q1/bin/../lib/gcc/arm-none-eabi/4.8.3/armv7-m\libgcc.a(_dvmd_tls.o)
__aeabi_l2d                                       c:/users/данила кондрашов/appdata/local/arduino15/packages/arduino/tools/arm-none-eabi-gcc/4.8.3-2014q1/bin/../lib/gcc/arm-none-eabi/4.8.3/armv7-m\libgcc.a(_arm_addsubdf3.o)
                                                  C:\Users\Данила Кондрашов\AppData\Local\Temp\VMBuilds\LAB8_NEW\stm32duino_genericSTM32F103C6\Release\core.a(Print.cpp.o)
__aeabi_l2f                                       c:/users/данила кондрашов/appdata/local/arduino15/packages/arduino/tools/arm-none-eabi-gcc/4.8.3-2014q1/bin/../lib/gcc/arm-none-eabi/4.8.3/armv7-m\libgcc.a(_arm_addsubsf3.o)
__aeabi_ldiv0                                     c:/users/данила кондрашов/appdata/local/arduino15/packages/arduino/tools/arm-none-eabi-gcc/4.8.3-2014q1/bin/../lib/gcc/arm-none-eabi/4.8.3/armv7-m\libgcc.a(_dvmd_tls.o)
                                                  c:/users/данила кондрашов/appdata/local/arduino15/packages/arduino/tools/arm-none-eabi-gcc/4.8.3-2014q1/bin/../lib/gcc/arm-none-eabi/4.8.3/armv7-m\libgcc.a(_aeabi_uldivmod.o)
__aeabi_ui2d                                      c:/users/данила кондрашов/appdata/local/arduino15/packages/arduino/tools/arm-none-eabi-gcc/4.8.3-2014q1/bin/../lib/gcc/arm-none-eabi/4.8.3/armv7-m\libgcc.a(_arm_addsubdf3.o)
                                                  c:/users/данила кондрашов/appdata/local/arduino15/packages/arduino/tools/arm-none-eabi-gcc/4.8.3-2014q1/bin/../lib/gcc/arm-none-eabi/4.8.3/armv7-m\libgcc.a(_fixunsdfdi.o)
__aeabi_ui2f                                      c:/users/данила кондрашов/appdata/local/arduino15/packages/arduino/tools/arm-none-eabi-gcc/4.8.3-2014q1/bin/../lib/gcc/arm-none-eabi/4.8.3/armv7-m\libgcc.a(_arm_addsubsf3.o)
                                                  LM75A_Arduino_library\M2M_LM75A.cpp.o
__aeabi_ul2d                                      c:/users/данила кондрашов/appdata/local/arduino15/packages/arduino/tools/arm-none-eabi-gcc/4.8.3-2014q1/bin/../lib/gcc/arm-none-eabi/4.8.3/armv7-m\libgcc.a(_arm_addsubdf3.o)
__aeabi_ul2f                                      c:/users/данила кондрашов/appdata/local/arduino15/packages/arduino/tools/arm-none-eabi-gcc/4.8.3-2014q1/bin/../lib/gcc/arm-none-eabi/4.8.3/armv7-m\libgcc.a(_arm_addsubsf3.o)
__aeabi_uldivmod                                  c:/users/данила кондрашов/appdata/local/arduino15/packages/arduino/tools/arm-none-eabi-gcc/4.8.3-2014q1/bin/../lib/gcc/arm-none-eabi/4.8.3/armv7-m\libgcc.a(_aeabi_uldivmod.o)
                                                  C:\Users\Данила Кондрашов\AppData\Local\Temp\VMBuilds\LAB8_NEW\stm32duino_genericSTM32F103C6\Release\core.a(Print.cpp.o)
__assert_func                                     C:\Users\Данила Кондрашов\AppData\Local\Temp\VMBuilds\LAB8_NEW\stm32duino_genericSTM32F103C6\Release\core.a(util.c.o)
__bss_end__                                       C:\Users\Данила Кондрашов\AppData\Local\Temp\VMBCore\arduino16x\1ff78a0346523d7d91af874899f893a8\variant\start_c.c.o
                                                  c:/users/данила кондрашов/appdata/local/arduino15/packages/arduino/tools/arm-none-eabi-gcc/4.8.3-2014q1/bin/../lib/gcc/arm-none-eabi/4.8.3/../../../../arm-none-eabi/lib/armv7-m/crt0.o
__bss_start__                                     C:\Users\Данила Кондрашов\AppData\Local\Temp\VMBCore\arduino16x\1ff78a0346523d7d91af874899f893a8\variant\start_c.c.o
                                                  c:/users/данила кондрашов/appdata/local/arduino15/packages/arduino/tools/arm-none-eabi-gcc/4.8.3-2014q1/bin/../lib/gcc/arm-none-eabi/4.8.3/../../../../arm-none-eabi/lib/armv7-m/crt0.o
__call_exitprocs                                  c:/users/данила кондрашов/appdata/local/arduino15/packages/arduino/tools/arm-none-eabi-gcc/4.8.3-2014q1/bin/../lib/gcc/arm-none-eabi/4.8.3/../../../../arm-none-eabi/lib/armv7-m\libc_s.a(lib_a-exit.o)
__cmpdf2                                          c:/users/данила кондрашов/appdata/local/arduino15/packages/arduino/tools/arm-none-eabi-gcc/4.8.3-2014q1/bin/../lib/gcc/arm-none-eabi/4.8.3/armv7-m\libgcc.a(_arm_cmpdf2.o)
__cxa_demangle                                    C:\Users\Данила Кондрашов\AppData\Local\Temp\VMBuilds\LAB8_NEW\stm32duino_genericSTM32F103C6\Release\core.a(cxxabi-compat.cpp.o)
__cxa_pure_virtual                                C:\Users\Данила Кондрашов\AppData\Local\Temp\VMBuilds\LAB8_NEW\stm32duino_genericSTM32F103C6\Release\core.a(cxxabi-compat.cpp.o)
                                                  C:\Users\Данила Кондрашов\AppData\Local\Temp\VMBuilds\LAB8_NEW\stm32duino_genericSTM32F103C6\Release\core.a(Print.cpp.o)
                                                  C:\Users\Данила Кондрашов\AppData\Local\Temp\VMBuilds\LAB8_NEW\stm32duino_genericSTM32F103C6\Release\core.a(HardwareSerial.cpp.o)
                                                  Wire\utility\WireBase.cpp.o
__data_end__                                      C:\Users\Данила Кондрашов\AppData\Local\Temp\VMBCore\arduino16x\1ff78a0346523d7d91af874899f893a8\variant\start_c.c.o
__data_start__                                    C:\Users\Данила Кондрашов\AppData\Local\Temp\VMBCore\arduino16x\1ff78a0346523d7d91af874899f893a8\variant\start_c.c.o
__default_handler                                 C:\Users\Данила Кондрашов\AppData\Local\Temp\VMBuilds\LAB8_NEW\stm32duino_genericSTM32F103C6\Release\core.a(isrs.S.o)
__deregister_frame_info                           c:/users/данила кондрашов/appdata/local/arduino15/packages/arduino/tools/arm-none-eabi-gcc/4.8.3-2014q1/bin/../lib/gcc/arm-none-eabi/4.8.3/armv7-m/crtbegin.o
__divdf3                                          c:/users/данила кондрашов/appdata/local/arduino15/packages/arduino/tools/arm-none-eabi-gcc/4.8.3-2014q1/bin/../lib/gcc/arm-none-eabi/4.8.3/armv7-m\libgcc.a(_arm_muldivdf3.o)
__divdi3                                          c:/users/данила кондрашов/appdata/local/arduino15/packages/arduino/tools/arm-none-eabi-gcc/4.8.3-2014q1/bin/../lib/gcc/arm-none-eabi/4.8.3/armv7-m\libgcc.a(_divdi3.o)
                                                  c:/users/данила кондрашов/appdata/local/arduino15/packages/arduino/tools/arm-none-eabi-gcc/4.8.3-2014q1/bin/../lib/gcc/arm-none-eabi/4.8.3/armv7-m\libgcc.a(bpabi.o)
__divsf3                                          c:/users/данила кондрашов/appdata/local/arduino15/packages/arduino/tools/arm-none-eabi-gcc/4.8.3-2014q1/bin/../lib/gcc/arm-none-eabi/4.8.3/armv7-m\libgcc.a(_arm_muldivsf3.o)
__dso_handle                                      c:/users/данила кондрашов/appdata/local/arduino15/packages/arduino/tools/arm-none-eabi-gcc/4.8.3-2014q1/bin/../lib/gcc/arm-none-eabi/4.8.3/armv7-m/crtbegin.o
__eqdf2                                           c:/users/данила кондрашов/appdata/local/arduino15/packages/arduino/tools/arm-none-eabi-gcc/4.8.3-2014q1/bin/../lib/gcc/arm-none-eabi/4.8.3/armv7-m\libgcc.a(_arm_cmpdf2.o)
__errno                                           c:/users/данила кондрашов/appdata/local/arduino15/packages/arduino/tools/arm-none-eabi-gcc/4.8.3-2014q1/bin/../lib/gcc/arm-none-eabi/4.8.3/../../../../arm-none-eabi/lib/armv7-m\libc_s.a(lib_a-errno.o)
                                                  C:\Users\Данила Кондрашов\AppData\Local\Temp\VMBCore\arduino16x\1ff78a0346523d7d91af874899f893a8\variant\syscalls.c.o
__error                                           C:\Users\Данила Кондрашов\AppData\Local\Temp\VMBuilds\LAB8_NEW\stm32duino_genericSTM32F103C6\Release\core.a(util.c.o)
                                                  C:\Users\Данила Кондрашов\AppData\Local\Temp\VMBuilds\LAB8_NEW\stm32duino_genericSTM32F103C6\Release\core.a(exc.S.o)
__exc_busfault                                    C:\Users\Данила Кондрашов\AppData\Local\Temp\VMBuilds\LAB8_NEW\stm32duino_genericSTM32F103C6\Release\core.a(exc.S.o)
                                                  C:\Users\Данила Кондрашов\AppData\Local\Temp\VMBuilds\LAB8_NEW\stm32duino_genericSTM32F103C6\Release\core.a(vector_table.S.o)
__exc_debug_monitor                               C:\Users\Данила Кондрашов\AppData\Local\Temp\VMBuilds\LAB8_NEW\stm32duino_genericSTM32F103C6\Release\core.a(isrs.S.o)
                                                  C:\Users\Данила Кондрашов\AppData\Local\Temp\VMBuilds\LAB8_NEW\stm32duino_genericSTM32F103C6\Release\core.a(vector_table.S.o)
__exc_hardfault                                   C:\Users\Данила Кондрашов\AppData\Local\Temp\VMBuilds\LAB8_NEW\stm32duino_genericSTM32F103C6\Release\core.a(exc.S.o)
                                                  C:\Users\Данила Кондрашов\AppData\Local\Temp\VMBuilds\LAB8_NEW\stm32duino_genericSTM32F103C6\Release\core.a(vector_table.S.o)
__exc_memmanage                                   C:\Users\Данила Кондрашов\AppData\Local\Temp\VMBuilds\LAB8_NEW\stm32duino_genericSTM32F103C6\Release\core.a(exc.S.o)
                                                  C:\Users\Данила Кондрашов\AppData\Local\Temp\VMBuilds\LAB8_NEW\stm32duino_genericSTM32F103C6\Release\core.a(vector_table.S.o)
__exc_nmi                                         C:\Users\Данила Кондрашов\AppData\Local\Temp\VMBuilds\LAB8_NEW\stm32duino_genericSTM32F103C6\Release\core.a(exc.S.o)
                                                  C:\Users\Данила Кондрашов\AppData\Local\Temp\VMBuilds\LAB8_NEW\stm32duino_genericSTM32F103C6\Release\core.a(vector_table.S.o)
__exc_pendsv                                      C:\Users\Данила Кондрашов\AppData\Local\Temp\VMBuilds\LAB8_NEW\stm32duino_genericSTM32F103C6\Release\core.a(isrs.S.o)
                                                  C:\Users\Данила Кондрашов\AppData\Local\Temp\VMBuilds\LAB8_NEW\stm32duino_genericSTM32F103C6\Release\core.a(vector_table.S.o)
__exc_reset                                       C:\Users\Данила Кондрашов\AppData\Local\Temp\VMBuilds\LAB8_NEW\stm32duino_genericSTM32F103C6\Release\core.a(vector_table.S.o)
__exc_svc                                         C:\Users\Данила Кондрашов\AppData\Local\Temp\VMBuilds\LAB8_NEW\stm32duino_genericSTM32F103C6\Release\core.a(isrs.S.o)
                                                  C:\Users\Данила Кондрашов\AppData\Local\Temp\VMBuilds\LAB8_NEW\stm32duino_genericSTM32F103C6\Release\core.a(vector_table.S.o)
__exc_systick                                     C:\Users\Данила Кондрашов\AppData\Local\Temp\VMBuilds\LAB8_NEW\stm32duino_genericSTM32F103C6\Release\core.a(systick.c.o)
                                                  C:\Users\Данила Кондрашов\AppData\Local\Temp\VMBuilds\LAB8_NEW\stm32duino_genericSTM32F103C6\Release\core.a(vector_table.S.o)
__exc_usagefault                                  C:\Users\Данила Кондрашов\AppData\Local\Temp\VMBuilds\LAB8_NEW\stm32duino_genericSTM32F103C6\Release\core.a(exc.S.o)
                                                  C:\Users\Данила Кондрашов\AppData\Local\Temp\VMBuilds\LAB8_NEW\stm32duino_genericSTM32F103C6\Release\core.a(vector_table.S.o)
__extendsfdf2                                     c:/users/данила кондрашов/appdata/local/arduino15/packages/arduino/tools/arm-none-eabi-gcc/4.8.3-2014q1/bin/../lib/gcc/arm-none-eabi/4.8.3/armv7-m\libgcc.a(_arm_addsubdf3.o)
__fixdfdi                                         c:/users/данила кондрашов/appdata/local/arduino15/packages/arduino/tools/arm-none-eabi-gcc/4.8.3-2014q1/bin/../lib/gcc/arm-none-eabi/4.8.3/armv7-m\libgcc.a(_fixdfdi.o)
__fixdfsi                                         c:/users/данила кондрашов/appdata/local/arduino15/packages/arduino/tools/arm-none-eabi-gcc/4.8.3-2014q1/bin/../lib/gcc/arm-none-eabi/4.8.3/armv7-m\libgcc.a(_arm_fixdfsi.o)
__fixunsdfdi                                      c:/users/данила кондрашов/appdata/local/arduino15/packages/arduino/tools/arm-none-eabi-gcc/4.8.3-2014q1/bin/../lib/gcc/arm-none-eabi/4.8.3/armv7-m\libgcc.a(_fixunsdfdi.o)
__fixunsdfsi                                      c:/users/данила кондрашов/appdata/local/arduino15/packages/arduino/tools/arm-none-eabi-gcc/4.8.3-2014q1/bin/../lib/gcc/arm-none-eabi/4.8.3/armv7-m\libgcc.a(_arm_fixunsdfsi.o)
__fixunssfsi                                      c:/users/данила кондрашов/appdata/local/arduino15/packages/arduino/tools/arm-none-eabi-gcc/4.8.3-2014q1/bin/../lib/gcc/arm-none-eabi/4.8.3/armv7-m\libgcc.a(_arm_fixunssfsi.o)
__floatdidf                                       c:/users/данила кондрашов/appdata/local/arduino15/packages/arduino/tools/arm-none-eabi-gcc/4.8.3-2014q1/bin/../lib/gcc/arm-none-eabi/4.8.3/armv7-m\libgcc.a(_arm_addsubdf3.o)
__floatdisf                                       c:/users/данила кондрашов/appdata/local/arduino15/packages/arduino/tools/arm-none-eabi-gcc/4.8.3-2014q1/bin/../lib/gcc/arm-none-eabi/4.8.3/armv7-m\libgcc.a(_arm_addsubsf3.o)
__floatsidf                                       c:/users/данила кондрашов/appdata/local/arduino15/packages/arduino/tools/arm-none-eabi-gcc/4.8.3-2014q1/bin/../lib/gcc/arm-none-eabi/4.8.3/armv7-m\libgcc.a(_arm_addsubdf3.o)
__floatsisf                                       c:/users/данила кондрашов/appdata/local/arduino15/packages/arduino/tools/arm-none-eabi-gcc/4.8.3-2014q1/bin/../lib/gcc/arm-none-eabi/4.8.3/armv7-m\libgcc.a(_arm_addsubsf3.o)
__floatundidf                                     c:/users/данила кондрашов/appdata/local/arduino15/packages/arduino/tools/arm-none-eabi-gcc/4.8.3-2014q1/bin/../lib/gcc/arm-none-eabi/4.8.3/armv7-m\libgcc.a(_arm_addsubdf3.o)
__floatundisf                                     c:/users/данила кондрашов/appdata/local/arduino15/packages/arduino/tools/arm-none-eabi-gcc/4.8.3-2014q1/bin/../lib/gcc/arm-none-eabi/4.8.3/armv7-m\libgcc.a(_arm_addsubsf3.o)
__floatunsidf                                     c:/users/данила кондрашов/appdata/local/arduino15/packages/arduino/tools/arm-none-eabi-gcc/4.8.3-2014q1/bin/../lib/gcc/arm-none-eabi/4.8.3/armv7-m\libgcc.a(_arm_addsubdf3.o)
__floatunsisf                                     c:/users/данила кондрашов/appdata/local/arduino15/packages/arduino/tools/arm-none-eabi-gcc/4.8.3-2014q1/bin/../lib/gcc/arm-none-eabi/4.8.3/armv7-m\libgcc.a(_arm_addsubsf3.o)
__gedf2                                           c:/users/данила кондрашов/appdata/local/arduino15/packages/arduino/tools/arm-none-eabi-gcc/4.8.3-2014q1/bin/../lib/gcc/arm-none-eabi/4.8.3/armv7-m\libgcc.a(_arm_cmpdf2.o)
__gnu_ldivmod_helper                              c:/users/данила кондрашов/appdata/local/arduino15/packages/arduino/tools/arm-none-eabi-gcc/4.8.3-2014q1/bin/../lib/gcc/arm-none-eabi/4.8.3/armv7-m\libgcc.a(bpabi.o)
__gnu_uldivmod_helper                             c:/users/данила кондрашов/appdata/local/arduino15/packages/arduino/tools/arm-none-eabi-gcc/4.8.3-2014q1/bin/../lib/gcc/arm-none-eabi/4.8.3/armv7-m\libgcc.a(bpabi.o)
                                                  c:/users/данила кондрашов/appdata/local/arduino15/packages/arduino/tools/arm-none-eabi-gcc/4.8.3-2014q1/bin/../lib/gcc/arm-none-eabi/4.8.3/armv7-m\libgcc.a(_aeabi_uldivmod.o)
__gtdf2                                           c:/users/данила кондрашов/appdata/local/arduino15/packages/arduino/tools/arm-none-eabi-gcc/4.8.3-2014q1/bin/../lib/gcc/arm-none-eabi/4.8.3/armv7-m\libgcc.a(_arm_cmpdf2.o)
__init_array_end                                  c:/users/данила кондрашов/appdata/local/arduino15/packages/arduino/tools/arm-none-eabi-gcc/4.8.3-2014q1/bin/../lib/gcc/arm-none-eabi/4.8.3/../../../../arm-none-eabi/lib/armv7-m\libc_s.a(lib_a-init.o)
__init_array_start                                c:/users/данила кондрашов/appdata/local/arduino15/packages/arduino/tools/arm-none-eabi-gcc/4.8.3-2014q1/bin/../lib/gcc/arm-none-eabi/4.8.3/../../../../arm-none-eabi/lib/armv7-m\libc_s.a(lib_a-init.o)
__irq_adc                                         C:\Users\Данила Кондрашов\AppData\Local\Temp\VMBuilds\LAB8_NEW\stm32duino_genericSTM32F103C6\Release\core.a(adc_f1.c.o)
                                                  C:\Users\Данила Кондрашов\AppData\Local\Temp\VMBuilds\LAB8_NEW\stm32duino_genericSTM32F103C6\Release\core.a(vector_table.S.o)
__irq_can_rx1                                     C:\Users\Данила Кондрашов\AppData\Local\Temp\VMBuilds\LAB8_NEW\stm32duino_genericSTM32F103C6\Release\core.a(isrs.S.o)
                                                  C:\Users\Данила Кондрашов\AppData\Local\Temp\VMBuilds\LAB8_NEW\stm32duino_genericSTM32F103C6\Release\core.a(vector_table.S.o)
__irq_can_sce                                     C:\Users\Данила Кондрашов\AppData\Local\Temp\VMBuilds\LAB8_NEW\stm32duino_genericSTM32F103C6\Release\core.a(isrs.S.o)
                                                  C:\Users\Данила Кондрашов\AppData\Local\Temp\VMBuilds\LAB8_NEW\stm32duino_genericSTM32F103C6\Release\core.a(vector_table.S.o)
__irq_dma1_channel1                               C:\Users\Данила Кондрашов\AppData\Local\Temp\VMBuilds\LAB8_NEW\stm32duino_genericSTM32F103C6\Release\core.a(dma_f1.c.o)
                                                  C:\Users\Данила Кондрашов\AppData\Local\Temp\VMBuilds\LAB8_NEW\stm32duino_genericSTM32F103C6\Release\core.a(vector_table.S.o)
__irq_dma1_channel2                               C:\Users\Данила Кондрашов\AppData\Local\Temp\VMBuilds\LAB8_NEW\stm32duino_genericSTM32F103C6\Release\core.a(dma_f1.c.o)
                                                  C:\Users\Данила Кондрашов\AppData\Local\Temp\VMBuilds\LAB8_NEW\stm32duino_genericSTM32F103C6\Release\core.a(vector_table.S.o)
__irq_dma1_channel3                               C:\Users\Данила Кондрашов\AppData\Local\Temp\VMBuilds\LAB8_NEW\stm32duino_genericSTM32F103C6\Release\core.a(dma_f1.c.o)
                                                  C:\Users\Данила Кондрашов\AppData\Local\Temp\VMBuilds\LAB8_NEW\stm32duino_genericSTM32F103C6\Release\core.a(vector_table.S.o)
__irq_dma1_channel4                               C:\Users\Данила Кондрашов\AppData\Local\Temp\VMBuilds\LAB8_NEW\stm32duino_genericSTM32F103C6\Release\core.a(dma_f1.c.o)
                                                  C:\Users\Данила Кондрашов\AppData\Local\Temp\VMBuilds\LAB8_NEW\stm32duino_genericSTM32F103C6\Release\core.a(vector_table.S.o)
__irq_dma1_channel5                               C:\Users\Данила Кондрашов\AppData\Local\Temp\VMBuilds\LAB8_NEW\stm32duino_genericSTM32F103C6\Release\core.a(dma_f1.c.o)
                                                  C:\Users\Данила Кондрашов\AppData\Local\Temp\VMBuilds\LAB8_NEW\stm32duino_genericSTM32F103C6\Release\core.a(vector_table.S.o)
__irq_dma1_channel6                               C:\Users\Данила Кондрашов\AppData\Local\Temp\VMBuilds\LAB8_NEW\stm32duino_genericSTM32F103C6\Release\core.a(dma_f1.c.o)
                                                  C:\Users\Данила Кондрашов\AppData\Local\Temp\VMBuilds\LAB8_NEW\stm32duino_genericSTM32F103C6\Release\core.a(vector_table.S.o)
__irq_dma1_channel7                               C:\Users\Данила Кондрашов\AppData\Local\Temp\VMBuilds\LAB8_NEW\stm32duino_genericSTM32F103C6\Release\core.a(dma_f1.c.o)
                                                  C:\Users\Данила Кондрашов\AppData\Local\Temp\VMBuilds\LAB8_NEW\stm32duino_genericSTM32F103C6\Release\core.a(vector_table.S.o)
__irq_exti0                                       C:\Users\Данила Кондрашов\AppData\Local\Temp\VMBuilds\LAB8_NEW\stm32duino_genericSTM32F103C6\Release\core.a(exti.c.o)
                                                  C:\Users\Данила Кондрашов\AppData\Local\Temp\VMBuilds\LAB8_NEW\stm32duino_genericSTM32F103C6\Release\core.a(vector_table.S.o)
__irq_exti1                                       C:\Users\Данила Кондрашов\AppData\Local\Temp\VMBuilds\LAB8_NEW\stm32duino_genericSTM32F103C6\Release\core.a(exti.c.o)
                                                  C:\Users\Данила Кондрашов\AppData\Local\Temp\VMBuilds\LAB8_NEW\stm32duino_genericSTM32F103C6\Release\core.a(vector_table.S.o)
__irq_exti15_10                                   C:\Users\Данила Кондрашов\AppData\Local\Temp\VMBuilds\LAB8_NEW\stm32duino_genericSTM32F103C6\Release\core.a(exti.c.o)
                                                  C:\Users\Данила Кондрашов\AppData\Local\Temp\VMBuilds\LAB8_NEW\stm32duino_genericSTM32F103C6\Release\core.a(vector_table.S.o)
__irq_exti2                                       C:\Users\Данила Кондрашов\AppData\Local\Temp\VMBuilds\LAB8_NEW\stm32duino_genericSTM32F103C6\Release\core.a(exti.c.o)
                                                  C:\Users\Данила Кондрашов\AppData\Local\Temp\VMBuilds\LAB8_NEW\stm32duino_genericSTM32F103C6\Release\core.a(vector_table.S.o)
__irq_exti3                                       C:\Users\Данила Кондрашов\AppData\Local\Temp\VMBuilds\LAB8_NEW\stm32duino_genericSTM32F103C6\Release\core.a(exti.c.o)
                                                  C:\Users\Данила Кондрашов\AppData\Local\Temp\VMBuilds\LAB8_NEW\stm32duino_genericSTM32F103C6\Release\core.a(vector_table.S.o)
__irq_exti4                                       C:\Users\Данила Кондрашов\AppData\Local\Temp\VMBuilds\LAB8_NEW\stm32duino_genericSTM32F103C6\Release\core.a(exti.c.o)
                                                  C:\Users\Данила Кондрашов\AppData\Local\Temp\VMBuilds\LAB8_NEW\stm32duino_genericSTM32F103C6\Release\core.a(vector_table.S.o)
__irq_exti9_5                                     C:\Users\Данила Кондрашов\AppData\Local\Temp\VMBuilds\LAB8_NEW\stm32duino_genericSTM32F103C6\Release\core.a(exti.c.o)
                                                  C:\Users\Данила Кондрашов\AppData\Local\Temp\VMBuilds\LAB8_NEW\stm32duino_genericSTM32F103C6\Release\core.a(vector_table.S.o)
__irq_flash                                       C:\Users\Данила Кондрашов\AppData\Local\Temp\VMBuilds\LAB8_NEW\stm32duino_genericSTM32F103C6\Release\core.a(isrs.S.o)
                                                  C:\Users\Данила Кондрашов\AppData\Local\Temp\VMBuilds\LAB8_NEW\stm32duino_genericSTM32F103C6\Release\core.a(vector_table.S.o)
__irq_i2c1_er                                     C:\Users\Данила Кондрашов\AppData\Local\Temp\VMBuilds\LAB8_NEW\stm32duino_genericSTM32F103C6\Release\core.a(i2c_f1.c.o)
                                                  C:\Users\Данила Кондрашов\AppData\Local\Temp\VMBuilds\LAB8_NEW\stm32duino_genericSTM32F103C6\Release\core.a(vector_table.S.o)
__irq_i2c1_ev                                     C:\Users\Данила Кондрашов\AppData\Local\Temp\VMBuilds\LAB8_NEW\stm32duino_genericSTM32F103C6\Release\core.a(i2c_f1.c.o)
                                                  C:\Users\Данила Кондрашов\AppData\Local\Temp\VMBuilds\LAB8_NEW\stm32duino_genericSTM32F103C6\Release\core.a(vector_table.S.o)
__irq_i2c2_er                                     C:\Users\Данила Кондрашов\AppData\Local\Temp\VMBuilds\LAB8_NEW\stm32duino_genericSTM32F103C6\Release\core.a(i2c_f1.c.o)
                                                  C:\Users\Данила Кондрашов\AppData\Local\Temp\VMBuilds\LAB8_NEW\stm32duino_genericSTM32F103C6\Release\core.a(vector_table.S.o)
__irq_i2c2_ev                                     C:\Users\Данила Кондрашов\AppData\Local\Temp\VMBuilds\LAB8_NEW\stm32duino_genericSTM32F103C6\Release\core.a(i2c_f1.c.o)
                                                  C:\Users\Данила Кондрашов\AppData\Local\Temp\VMBuilds\LAB8_NEW\stm32duino_genericSTM32F103C6\Release\core.a(vector_table.S.o)
__irq_pvd                                         C:\Users\Данила Кондрашов\AppData\Local\Temp\VMBuilds\LAB8_NEW\stm32duino_genericSTM32F103C6\Release\core.a(isrs.S.o)
                                                  C:\Users\Данила Кондрашов\AppData\Local\Temp\VMBuilds\LAB8_NEW\stm32duino_genericSTM32F103C6\Release\core.a(vector_table.S.o)
__irq_rcc                                         C:\Users\Данила Кондрашов\AppData\Local\Temp\VMBuilds\LAB8_NEW\stm32duino_genericSTM32F103C6\Release\core.a(isrs.S.o)
                                                  C:\Users\Данила Кондрашов\AppData\Local\Temp\VMBuilds\LAB8_NEW\stm32duino_genericSTM32F103C6\Release\core.a(vector_table.S.o)
__irq_rtc                                         C:\Users\Данила Кондрашов\AppData\Local\Temp\VMBuilds\LAB8_NEW\stm32duino_genericSTM32F103C6\Release\core.a(isrs.S.o)
                                                  C:\Users\Данила Кондрашов\AppData\Local\Temp\VMBuilds\LAB8_NEW\stm32duino_genericSTM32F103C6\Release\core.a(vector_table.S.o)
__irq_rtcalarm                                    C:\Users\Данила Кондрашов\AppData\Local\Temp\VMBuilds\LAB8_NEW\stm32duino_genericSTM32F103C6\Release\core.a(isrs.S.o)
                                                  C:\Users\Данила Кондрашов\AppData\Local\Temp\VMBuilds\LAB8_NEW\stm32duino_genericSTM32F103C6\Release\core.a(vector_table.S.o)
__irq_spi1                                        C:\Users\Данила Кондрашов\AppData\Local\Temp\VMBuilds\LAB8_NEW\stm32duino_genericSTM32F103C6\Release\core.a(isrs.S.o)
                                                  C:\Users\Данила Кондрашов\AppData\Local\Temp\VMBuilds\LAB8_NEW\stm32duino_genericSTM32F103C6\Release\core.a(vector_table.S.o)
__irq_spi2                                        C:\Users\Данила Кондрашов\AppData\Local\Temp\VMBuilds\LAB8_NEW\stm32duino_genericSTM32F103C6\Release\core.a(isrs.S.o)
                                                  C:\Users\Данила Кондрашов\AppData\Local\Temp\VMBuilds\LAB8_NEW\stm32duino_genericSTM32F103C6\Release\core.a(vector_table.S.o)
__irq_tamper                                      C:\Users\Данила Кондрашов\AppData\Local\Temp\VMBuilds\LAB8_NEW\stm32duino_genericSTM32F103C6\Release\core.a(isrs.S.o)
                                                  C:\Users\Данила Кондрашов\AppData\Local\Temp\VMBuilds\LAB8_NEW\stm32duino_genericSTM32F103C6\Release\core.a(vector_table.S.o)
__irq_tim1_brk                                    C:\Users\Данила Кондрашов\AppData\Local\Temp\VMBuilds\LAB8_NEW\stm32duino_genericSTM32F103C6\Release\core.a(timer.c.o)
                                                  C:\Users\Данила Кондрашов\AppData\Local\Temp\VMBuilds\LAB8_NEW\stm32duino_genericSTM32F103C6\Release\core.a(vector_table.S.o)
__irq_tim1_cc                                     C:\Users\Данила Кондрашов\AppData\Local\Temp\VMBuilds\LAB8_NEW\stm32duino_genericSTM32F103C6\Release\core.a(timer.c.o)
                                                  C:\Users\Данила Кондрашов\AppData\Local\Temp\VMBuilds\LAB8_NEW\stm32duino_genericSTM32F103C6\Release\core.a(vector_table.S.o)
__irq_tim1_trg_com                                C:\Users\Данила Кондрашов\AppData\Local\Temp\VMBuilds\LAB8_NEW\stm32duino_genericSTM32F103C6\Release\core.a(timer.c.o)
                                                  C:\Users\Данила Кондрашов\AppData\Local\Temp\VMBuilds\LAB8_NEW\stm32duino_genericSTM32F103C6\Release\core.a(vector_table.S.o)
__irq_tim1_up                                     C:\Users\Данила Кондрашов\AppData\Local\Temp\VMBuilds\LAB8_NEW\stm32duino_genericSTM32F103C6\Release\core.a(timer.c.o)
                                                  C:\Users\Данила Кондрашов\AppData\Local\Temp\VMBuilds\LAB8_NEW\stm32duino_genericSTM32F103C6\Release\core.a(vector_table.S.o)
__irq_tim2                                        C:\Users\Данила Кондрашов\AppData\Local\Temp\VMBuilds\LAB8_NEW\stm32duino_genericSTM32F103C6\Release\core.a(timer.c.o)
                                                  C:\Users\Данила Кондрашов\AppData\Local\Temp\VMBuilds\LAB8_NEW\stm32duino_genericSTM32F103C6\Release\core.a(vector_table.S.o)
__irq_tim3                                        C:\Users\Данила Кондрашов\AppData\Local\Temp\VMBuilds\LAB8_NEW\stm32duino_genericSTM32F103C6\Release\core.a(timer.c.o)
                                                  C:\Users\Данила Кондрашов\AppData\Local\Temp\VMBuilds\LAB8_NEW\stm32duino_genericSTM32F103C6\Release\core.a(vector_table.S.o)
__irq_tim4                                        C:\Users\Данила Кондрашов\AppData\Local\Temp\VMBuilds\LAB8_NEW\stm32duino_genericSTM32F103C6\Release\core.a(timer.c.o)
                                                  C:\Users\Данила Кондрашов\AppData\Local\Temp\VMBuilds\LAB8_NEW\stm32duino_genericSTM32F103C6\Release\core.a(vector_table.S.o)
__irq_usart1                                      C:\Users\Данила Кондрашов\AppData\Local\Temp\VMBuilds\LAB8_NEW\stm32duino_genericSTM32F103C6\Release\core.a(usart_f1.c.o)
                                                  C:\Users\Данила Кондрашов\AppData\Local\Temp\VMBuilds\LAB8_NEW\stm32duino_genericSTM32F103C6\Release\core.a(vector_table.S.o)
__irq_usart2                                      C:\Users\Данила Кондрашов\AppData\Local\Temp\VMBuilds\LAB8_NEW\stm32duino_genericSTM32F103C6\Release\core.a(usart_f1.c.o)
                                                  C:\Users\Данила Кондрашов\AppData\Local\Temp\VMBuilds\LAB8_NEW\stm32duino_genericSTM32F103C6\Release\core.a(vector_table.S.o)
__irq_usart3                                      C:\Users\Данила Кондрашов\AppData\Local\Temp\VMBuilds\LAB8_NEW\stm32duino_genericSTM32F103C6\Release\core.a(usart_f1.c.o)
                                                  C:\Users\Данила Кондрашов\AppData\Local\Temp\VMBuilds\LAB8_NEW\stm32duino_genericSTM32F103C6\Release\core.a(vector_table.S.o)
__irq_usb_hp_can_tx                               C:\Users\Данила Кондрашов\AppData\Local\Temp\VMBuilds\LAB8_NEW\stm32duino_genericSTM32F103C6\Release\core.a(isrs.S.o)
                                                  C:\Users\Данила Кондрашов\AppData\Local\Temp\VMBuilds\LAB8_NEW\stm32duino_genericSTM32F103C6\Release\core.a(vector_table.S.o)
__irq_usb_lp_can_rx0                              C:\Users\Данила Кондрашов\AppData\Local\Temp\VMBuilds\LAB8_NEW\stm32duino_genericSTM32F103C6\Release\core.a(usb.c.o)
                                                  C:\Users\Данила Кондрашов\AppData\Local\Temp\VMBuilds\LAB8_NEW\stm32duino_genericSTM32F103C6\Release\core.a(vector_table.S.o)
__irq_usbwakeup                                   C:\Users\Данила Кондрашов\AppData\Local\Temp\VMBuilds\LAB8_NEW\stm32duino_genericSTM32F103C6\Release\core.a(isrs.S.o)
                                                  C:\Users\Данила Кондрашов\AppData\Local\Temp\VMBuilds\LAB8_NEW\stm32duino_genericSTM32F103C6\Release\core.a(vector_table.S.o)
__irq_wwdg                                        C:\Users\Данила Кондрашов\AppData\Local\Temp\VMBuilds\LAB8_NEW\stm32duino_genericSTM32F103C6\Release\core.a(isrs.S.o)
                                                  C:\Users\Данила Кондрашов\AppData\Local\Temp\VMBuilds\LAB8_NEW\stm32duino_genericSTM32F103C6\Release\core.a(vector_table.S.o)
__ledf2                                           c:/users/данила кондрашов/appdata/local/arduino15/packages/arduino/tools/arm-none-eabi-gcc/4.8.3-2014q1/bin/../lib/gcc/arm-none-eabi/4.8.3/armv7-m\libgcc.a(_arm_cmpdf2.o)
__libc_fini_array                                 c:/users/данила кондрашов/appdata/local/arduino15/packages/arduino/tools/arm-none-eabi-gcc/4.8.3-2014q1/bin/../lib/gcc/arm-none-eabi/4.8.3/../../../../arm-none-eabi/lib/armv7-m/crt0.o
__libc_init_array                                 c:/users/данила кондрашов/appdata/local/arduino15/packages/arduino/tools/arm-none-eabi-gcc/4.8.3-2014q1/bin/../lib/gcc/arm-none-eabi/4.8.3/../../../../arm-none-eabi/lib/armv7-m\libc_s.a(lib_a-init.o)
                                                  C:\Users\Данила Кондрашов\AppData\Local\Temp\VMBCore\arduino16x\1ff78a0346523d7d91af874899f893a8\variant\start_c.c.o
                                                  c:/users/данила кондрашов/appdata/local/arduino15/packages/arduino/tools/arm-none-eabi-gcc/4.8.3-2014q1/bin/../lib/gcc/arm-none-eabi/4.8.3/../../../../arm-none-eabi/lib/armv7-m/crt0.o
__lm_enable_error_usart                           C:\Users\Данила Кондрашов\AppData\Local\Temp\VMBuilds\LAB8_NEW\stm32duino_genericSTM32F103C6\Release\core.a(util.c.o)
__lm_error                                        C:\Users\Данила Кондрашов\AppData\Local\Temp\VMBuilds\LAB8_NEW\stm32duino_genericSTM32F103C6\Release\core.a(util.c.o)
__ltdf2                                           c:/users/данила кондрашов/appdata/local/arduino15/packages/arduino/tools/arm-none-eabi-gcc/4.8.3-2014q1/bin/../lib/gcc/arm-none-eabi/4.8.3/armv7-m\libgcc.a(_arm_cmpdf2.o)
__msp_init                                        C:\Users\Данила Кондрашов\AppData\Local\Temp\VMBuilds\LAB8_NEW\stm32duino_genericSTM32F103C6\Release\core.a(vector_table.S.o)
                                                  C:\Users\Данила Кондрашов\AppData\Local\Temp\VMBCore\arduino16x\1ff78a0346523d7d91af874899f893a8\variant\start.S.o
__muldf3                                          c:/users/данила кондрашов/appdata/local/arduino15/packages/arduino/tools/arm-none-eabi-gcc/4.8.3-2014q1/bin/../lib/gcc/arm-none-eabi/4.8.3/armv7-m\libgcc.a(_arm_muldivdf3.o)
__mulsf3                                          c:/users/данила кондрашов/appdata/local/arduino15/packages/arduino/tools/arm-none-eabi-gcc/4.8.3-2014q1/bin/../lib/gcc/arm-none-eabi/4.8.3/armv7-m\libgcc.a(_arm_muldivsf3.o)
__nedf2                                           c:/users/данила кондрашов/appdata/local/arduino15/packages/arduino/tools/arm-none-eabi-gcc/4.8.3-2014q1/bin/../lib/gcc/arm-none-eabi/4.8.3/armv7-m\libgcc.a(_arm_cmpdf2.o)
__preinit_array_end                               c:/users/данила кондрашов/appdata/local/arduino15/packages/arduino/tools/arm-none-eabi-gcc/4.8.3-2014q1/bin/../lib/gcc/arm-none-eabi/4.8.3/../../../../arm-none-eabi/lib/armv7-m\libc_s.a(lib_a-init.o)
__preinit_array_start                             c:/users/данила кондрашов/appdata/local/arduino15/packages/arduino/tools/arm-none-eabi-gcc/4.8.3-2014q1/bin/../lib/gcc/arm-none-eabi/4.8.3/../../../../arm-none-eabi/lib/armv7-m\libc_s.a(lib_a-init.o)
__register_frame_info                             c:/users/данила кондрашов/appdata/local/arduino15/packages/arduino/tools/arm-none-eabi-gcc/4.8.3-2014q1/bin/../lib/gcc/arm-none-eabi/4.8.3/armv7-m/crtbegin.o
__sf_fake_stderr                                  c:/users/данила кондрашов/appdata/local/arduino15/packages/arduino/tools/arm-none-eabi-gcc/4.8.3-2014q1/bin/../lib/gcc/arm-none-eabi/4.8.3/../../../../arm-none-eabi/lib/armv7-m\libc_s.a(lib_a-impure.o)
__sf_fake_stdin                                   c:/users/данила кондрашов/appdata/local/arduino15/packages/arduino/tools/arm-none-eabi-gcc/4.8.3-2014q1/bin/../lib/gcc/arm-none-eabi/4.8.3/../../../../arm-none-eabi/lib/armv7-m\libc_s.a(lib_a-impure.o)
__sf_fake_stdout                                  c:/users/данила кондрашов/appdata/local/arduino15/packages/arduino/tools/arm-none-eabi-gcc/4.8.3-2014q1/bin/../lib/gcc/arm-none-eabi/4.8.3/../../../../arm-none-eabi/lib/armv7-m\libc_s.a(lib_a-impure.o)
__stack                                           c:/users/данила кондрашов/appdata/local/arduino15/packages/arduino/tools/arm-none-eabi-gcc/4.8.3-2014q1/bin/../lib/gcc/arm-none-eabi/4.8.3/../../../../arm-none-eabi/lib/armv7-m/crt0.o
__start__                                         C:\Users\Данила Кондрашов\AppData\Local\Temp\VMBCore\arduino16x\1ff78a0346523d7d91af874899f893a8\variant\start.S.o
__stm32_vector_table                              C:\Users\Данила Кондрашов\AppData\Local\Temp\VMBuilds\LAB8_NEW\stm32duino_genericSTM32F103C6\Release\core.a(vector_table.S.o)
__stm32reservedexception10                        C:\Users\Данила Кондрашов\AppData\Local\Temp\VMBuilds\LAB8_NEW\stm32duino_genericSTM32F103C6\Release\core.a(isrs.S.o)
                                                  C:\Users\Данила Кондрашов\AppData\Local\Temp\VMBuilds\LAB8_NEW\stm32duino_genericSTM32F103C6\Release\core.a(vector_table.S.o)
__stm32reservedexception13                        C:\Users\Данила Кондрашов\AppData\Local\Temp\VMBuilds\LAB8_NEW\stm32duino_genericSTM32F103C6\Release\core.a(isrs.S.o)
                                                  C:\Users\Данила Кондрашов\AppData\Local\Temp\VMBuilds\LAB8_NEW\stm32duino_genericSTM32F103C6\Release\core.a(vector_table.S.o)
__stm32reservedexception7                         C:\Users\Данила Кондрашов\AppData\Local\Temp\VMBuilds\LAB8_NEW\stm32duino_genericSTM32F103C6\Release\core.a(isrs.S.o)
                                                  C:\Users\Данила Кондрашов\AppData\Local\Temp\VMBuilds\LAB8_NEW\stm32duino_genericSTM32F103C6\Release\core.a(vector_table.S.o)
__stm32reservedexception8                         C:\Users\Данила Кондрашов\AppData\Local\Temp\VMBuilds\LAB8_NEW\stm32duino_genericSTM32F103C6\Release\core.a(isrs.S.o)
                                                  C:\Users\Данила Кондрашов\AppData\Local\Temp\VMBuilds\LAB8_NEW\stm32duino_genericSTM32F103C6\Release\core.a(vector_table.S.o)
__stm32reservedexception9                         C:\Users\Данила Кондрашов\AppData\Local\Temp\VMBuilds\LAB8_NEW\stm32duino_genericSTM32F103C6\Release\core.a(isrs.S.o)
                                                  C:\Users\Данила Кондрашов\AppData\Local\Temp\VMBuilds\LAB8_NEW\stm32duino_genericSTM32F103C6\Release\core.a(vector_table.S.o)
__subdf3                                          c:/users/данила кондрашов/appdata/local/arduino15/packages/arduino/tools/arm-none-eabi-gcc/4.8.3-2014q1/bin/../lib/gcc/arm-none-eabi/4.8.3/armv7-m\libgcc.a(_arm_addsubdf3.o)
__subsf3                                          c:/users/данила кондрашов/appdata/local/arduino15/packages/arduino/tools/arm-none-eabi-gcc/4.8.3-2014q1/bin/../lib/gcc/arm-none-eabi/4.8.3/armv7-m\libgcc.a(_arm_addsubsf3.o)
__udivdi3                                         c:/users/данила кондрашов/appdata/local/arduino15/packages/arduino/tools/arm-none-eabi-gcc/4.8.3-2014q1/bin/../lib/gcc/arm-none-eabi/4.8.3/armv7-m\libgcc.a(_udivdi3.o)
                                                  c:/users/данила кондрашов/appdata/local/arduino15/packages/arduino/tools/arm-none-eabi-gcc/4.8.3-2014q1/bin/../lib/gcc/arm-none-eabi/4.8.3/armv7-m\libgcc.a(bpabi.o)
_close                                            C:\Users\Данила Кондрашов\AppData\Local\Temp\VMBCore\arduino16x\1ff78a0346523d7d91af874899f893a8\variant\syscalls.c.o
_dma_addr_type                                    C:\Users\Данила Кондрашов\AppData\Local\Temp\VMBuilds\LAB8_NEW\stm32duino_genericSTM32F103C6\Release\core.a(dma.c.o)
                                                  C:\Users\Данила Кондрашов\AppData\Local\Temp\VMBuilds\LAB8_NEW\stm32duino_genericSTM32F103C6\Release\core.a(dma_f1.c.o)
_exit                                             C:\Users\Данила Кондрашов\AppData\Local\Temp\VMBCore\arduino16x\1ff78a0346523d7d91af874899f893a8\variant\syscalls.c.o
                                                  c:/users/данила кондрашов/appdata/local/arduino15/packages/arduino/tools/arm-none-eabi-gcc/4.8.3-2014q1/bin/../lib/gcc/arm-none-eabi/4.8.3/../../../../arm-none-eabi/lib/armv7-m\libc_s.a(lib_a-exit.o)
_fail                                             C:\Users\Данила Кондрашов\AppData\Local\Temp\VMBuilds\LAB8_NEW\stm32duino_genericSTM32F103C6\Release\core.a(util.c.o)
_fini                                             c:/users/данила кондрашов/appdata/local/arduino15/packages/arduino/tools/arm-none-eabi-gcc/4.8.3-2014q1/bin/../lib/gcc/arm-none-eabi/4.8.3/armv7-m/crti.o
_fstat                                            C:\Users\Данила Кондрашов\AppData\Local\Temp\VMBCore\arduino16x\1ff78a0346523d7d91af874899f893a8\variant\syscalls.c.o
_global_impure_ptr                                c:/users/данила кондрашов/appdata/local/arduino15/packages/arduino/tools/arm-none-eabi-gcc/4.8.3-2014q1/bin/../lib/gcc/arm-none-eabi/4.8.3/../../../../arm-none-eabi/lib/armv7-m\libc_s.a(lib_a-impure.o)
                                                  c:/users/данила кондрашов/appdata/local/arduino15/packages/arduino/tools/arm-none-eabi-gcc/4.8.3-2014q1/bin/../lib/gcc/arm-none-eabi/4.8.3/../../../../arm-none-eabi/lib/armv7-m\libc_s.a(lib_a-exit.o)
_i2c_irq_error_handler                            C:\Users\Данила Кондрашов\AppData\Local\Temp\VMBuilds\LAB8_NEW\stm32duino_genericSTM32F103C6\Release\core.a(i2c.c.o)
                                                  C:\Users\Данила Кондрашов\AppData\Local\Temp\VMBuilds\LAB8_NEW\stm32duino_genericSTM32F103C6\Release\core.a(i2c_f1.c.o)
_i2c_irq_handler                                  C:\Users\Данила Кондрашов\AppData\Local\Temp\VMBuilds\LAB8_NEW\stm32duino_genericSTM32F103C6\Release\core.a(i2c.c.o)
                                                  C:\Users\Данила Кондрашов\AppData\Local\Temp\VMBuilds\LAB8_NEW\stm32duino_genericSTM32F103C6\Release\core.a(i2c_f1.c.o)
_i2c_irq_priority_fixup                           C:\Users\Данила Кондрашов\AppData\Local\Temp\VMBuilds\LAB8_NEW\stm32duino_genericSTM32F103C6\Release\core.a(i2c_f1.c.o)
                                                  C:\Users\Данила Кондрашов\AppData\Local\Temp\VMBuilds\LAB8_NEW\stm32duino_genericSTM32F103C6\Release\core.a(i2c.c.o)
_impure_ptr                                       c:/users/данила кондрашов/appdata/local/arduino15/packages/arduino/tools/arm-none-eabi-gcc/4.8.3-2014q1/bin/../lib/gcc/arm-none-eabi/4.8.3/../../../../arm-none-eabi/lib/armv7-m\libc_s.a(lib_a-impure.o)
                                                  c:/users/данила кондрашов/appdata/local/arduino15/packages/arduino/tools/arm-none-eabi-gcc/4.8.3-2014q1/bin/../lib/gcc/arm-none-eabi/4.8.3/../../../../arm-none-eabi/lib/armv7-m\libc_s.a(lib_a-errno.o)
_init                                             c:/users/данила кондрашов/appdata/local/arduino15/packages/arduino/tools/arm-none-eabi-gcc/4.8.3-2014q1/bin/../lib/gcc/arm-none-eabi/4.8.3/armv7-m/crti.o
                                                  c:/users/данила кондрашов/appdata/local/arduino15/packages/arduino/tools/arm-none-eabi-gcc/4.8.3-2014q1/bin/../lib/gcc/arm-none-eabi/4.8.3/../../../../arm-none-eabi/lib/armv7-m\libc_s.a(lib_a-init.o)
_isatty                                           C:\Users\Данила Кондрашов\AppData\Local\Temp\VMBCore\arduino16x\1ff78a0346523d7d91af874899f893a8\variant\syscalls.c.o
_lm_heap_end                                      C:\Users\Данила Кондрашов\AppData\Local\Temp\VMBCore\arduino16x\1ff78a0346523d7d91af874899f893a8\variant\syscalls.c.o
_lm_heap_start                                    C:\Users\Данила Кондрашов\AppData\Local\Temp\VMBCore\arduino16x\1ff78a0346523d7d91af874899f893a8\variant\syscalls.c.o
_lm_rom_img_cfgp                                  C:\Users\Данила Кондрашов\AppData\Local\Temp\VMBCore\arduino16x\1ff78a0346523d7d91af874899f893a8\variant\start_c.c.o
_lseek                                            C:\Users\Данила Кондрашов\AppData\Local\Temp\VMBCore\arduino16x\1ff78a0346523d7d91af874899f893a8\variant\syscalls.c.o
_mainCRTStartup                                   c:/users/данила кондрашов/appdata/local/arduino15/packages/arduino/tools/arm-none-eabi-gcc/4.8.3-2014q1/bin/../lib/gcc/arm-none-eabi/4.8.3/../../../../arm-none-eabi/lib/armv7-m/crt0.o
_open                                             C:\Users\Данила Кондрашов\AppData\Local\Temp\VMBCore\arduino16x\1ff78a0346523d7d91af874899f893a8\variant\syscalls.c.o
_read                                             C:\Users\Данила Кондрашов\AppData\Local\Temp\VMBCore\arduino16x\1ff78a0346523d7d91af874899f893a8\variant\syscalls.c.o
_sbrk                                             C:\Users\Данила Кондрашов\AppData\Local\Temp\VMBCore\arduino16x\1ff78a0346523d7d91af874899f893a8\variant\syscalls.c.o
_start                                            c:/users/данила кондрашов/appdata/local/arduino15/packages/arduino/tools/arm-none-eabi-gcc/4.8.3-2014q1/bin/../lib/gcc/arm-none-eabi/4.8.3/../../../../arm-none-eabi/lib/armv7-m/crt0.o
_usart_clock_freq                                 C:\Users\Данила Кондрашов\AppData\Local\Temp\VMBuilds\LAB8_NEW\stm32duino_genericSTM32F103C6\Release\core.a(usart_private.c.o)
                                                  C:\Users\Данила Кондрашов\AppData\Local\Temp\VMBuilds\LAB8_NEW\stm32duino_genericSTM32F103C6\Release\core.a(usart_f1.c.o)
_write                                            C:\Users\Данила Кондрашов\AppData\Local\Temp\VMBCore\arduino16x\1ff78a0346523d7d91af874899f893a8\variant\syscalls.c.o
abort                                             C:\Users\Данила Кондрашов\AppData\Local\Temp\VMBuilds\LAB8_NEW\stm32duino_genericSTM32F103C6\Release\core.a(util.c.o)
adc1                                              C:\Users\Данила Кондрашов\AppData\Local\Temp\VMBuilds\LAB8_NEW\stm32duino_genericSTM32F103C6\Release\core.a(adc_f1.c.o)
                                                  C:\Users\Данила Кондрашов\AppData\Local\Temp\VMBCore\arduino16x\1ff78a0346523d7d91af874899f893a8\variant\board.cpp.o
adc2                                              C:\Users\Данила Кондрашов\AppData\Local\Temp\VMBuilds\LAB8_NEW\stm32duino_genericSTM32F103C6\Release\core.a(adc_f1.c.o)
adc_attach_interrupt                              C:\Users\Данила Кондрашов\AppData\Local\Temp\VMBuilds\LAB8_NEW\stm32duino_genericSTM32F103C6\Release\core.a(adc_f1.c.o)
adc_calibrate                                     C:\Users\Данила Кондрашов\AppData\Local\Temp\VMBuilds\LAB8_NEW\stm32duino_genericSTM32F103C6\Release\core.a(adc_f1.c.o)
adc_config_gpio                                   C:\Users\Данила Кондрашов\AppData\Local\Temp\VMBuilds\LAB8_NEW\stm32duino_genericSTM32F103C6\Release\core.a(adc_f1.c.o)
adc_enable_irq                                    C:\Users\Данила Кондрашов\AppData\Local\Temp\VMBuilds\LAB8_NEW\stm32duino_genericSTM32F103C6\Release\core.a(adc_f1.c.o)
adc_enable_single_swstart                         C:\Users\Данила Кондрашов\AppData\Local\Temp\VMBuilds\LAB8_NEW\stm32duino_genericSTM32F103C6\Release\core.a(adc_f1.c.o)
                                                  C:\Users\Данила Кондрашов\AppData\Local\Temp\VMBCore\arduino16x\1ff78a0346523d7d91af874899f893a8\variant\wirish\boards.cpp.o
adc_foreach                                       C:\Users\Данила Кондрашов\AppData\Local\Temp\VMBuilds\LAB8_NEW\stm32duino_genericSTM32F103C6\Release\core.a(adc_f1.c.o)
                                                  C:\Users\Данила Кондрашов\AppData\Local\Temp\VMBCore\arduino16x\1ff78a0346523d7d91af874899f893a8\variant\wirish\boards.cpp.o
adc_init                                          C:\Users\Данила Кондрашов\AppData\Local\Temp\VMBuilds\LAB8_NEW\stm32duino_genericSTM32F103C6\Release\core.a(adc.c.o)
                                                  C:\Users\Данила Кондрашов\AppData\Local\Temp\VMBuilds\LAB8_NEW\stm32duino_genericSTM32F103C6\Release\core.a(adc_f1.c.o)
adc_read                                          C:\Users\Данила Кондрашов\AppData\Local\Temp\VMBuilds\LAB8_NEW\stm32duino_genericSTM32F103C6\Release\core.a(adc.c.o)
adc_set_extsel                                    C:\Users\Данила Кондрашов\AppData\Local\Temp\VMBuilds\LAB8_NEW\stm32duino_genericSTM32F103C6\Release\core.a(adc.c.o)
                                                  C:\Users\Данила Кондрашов\AppData\Local\Temp\VMBuilds\LAB8_NEW\stm32duino_genericSTM32F103C6\Release\core.a(adc_f1.c.o)
adc_set_prescaler                                 C:\Users\Данила Кондрашов\AppData\Local\Temp\VMBuilds\LAB8_NEW\stm32duino_genericSTM32F103C6\Release\core.a(adc_f1.c.o)
                                                  C:\Users\Данила Кондрашов\AppData\Local\Temp\VMBCore\arduino16x\1ff78a0346523d7d91af874899f893a8\variant\wirish\boards.cpp.o
adc_set_sample_rate                               C:\Users\Данила Кондрашов\AppData\Local\Temp\VMBuilds\LAB8_NEW\stm32duino_genericSTM32F103C6\Release\core.a(adc.c.o)
                                                  C:\Users\Данила Кондрашов\AppData\Local\Temp\VMBCore\arduino16x\1ff78a0346523d7d91af874899f893a8\variant\wirish\boards.cpp.o
afio_init                                         C:\Users\Данила Кондрашов\AppData\Local\Temp\VMBuilds\LAB8_NEW\stm32duino_genericSTM32F103C6\Release\core.a(gpio_f1.c.o)
                                                  C:\Users\Данила Кондрашов\AppData\Local\Temp\VMBCore\arduino16x\1ff78a0346523d7d91af874899f893a8\variant\wirish\boards_setup.cpp.o
afio_is_remapped                                  C:\Users\Данила Кондрашов\AppData\Local\Temp\VMBuilds\LAB8_NEW\stm32duino_genericSTM32F103C6\Release\core.a(gpio_f1.c.o)
afio_remap                                        C:\Users\Данила Кондрашов\AppData\Local\Temp\VMBuilds\LAB8_NEW\stm32duino_genericSTM32F103C6\Release\core.a(gpio_f1.c.o)
                                                  C:\Users\Данила Кондрашов\AppData\Local\Temp\VMBuilds\LAB8_NEW\stm32duino_genericSTM32F103C6\Release\core.a(i2c_f1.c.o)
                                                  C:\Users\Данила Кондрашов\AppData\Local\Temp\VMBuilds\LAB8_NEW\stm32duino_genericSTM32F103C6\Release\core.a(i2c.c.o)
analogWrite(unsigned char, int)                   C:\Users\Данила Кондрашов\AppData\Local\Temp\VMBuilds\LAB8_NEW\stm32duino_genericSTM32F103C6\Release\core.a(pwm.cpp.o)
                                                  LAB8_NEW.cpp.o
atexit                                            c:/users/данила кондрашов/appdata/local/arduino15/packages/arduino/tools/arm-none-eabi-gcc/4.8.3-2014q1/bin/../lib/gcc/arm-none-eabi/4.8.3/../../../../arm-none-eabi/lib/armv7-m/crt0.o
boardADCPins                                      C:\Users\Данила Кондрашов\AppData\Local\Temp\VMBCore\arduino16x\1ff78a0346523d7d91af874899f893a8\variant\board.cpp.o
boardInit()                                       C:\Users\Данила Кондрашов\AppData\Local\Temp\VMBCore\arduino16x\1ff78a0346523d7d91af874899f893a8\variant\board.cpp.o
boardPWMPins                                      C:\Users\Данила Кондрашов\AppData\Local\Temp\VMBCore\arduino16x\1ff78a0346523d7d91af874899f893a8\variant\board.cpp.o
boardUsedPins                                     C:\Users\Данила Кондрашов\AppData\Local\Temp\VMBCore\arduino16x\1ff78a0346523d7d91af874899f893a8\variant\board.cpp.o
                                                  C:\Users\Данила Кондрашов\AppData\Local\Temp\VMBCore\arduino16x\1ff78a0346523d7d91af874899f893a8\variant\wirish\boards.cpp.o
boardUsesPin(unsigned char)                       C:\Users\Данила Кондрашов\AppData\Local\Temp\VMBCore\arduino16x\1ff78a0346523d7d91af874899f893a8\variant\wirish\boards.cpp.o
cgets                                             C:\Users\Данила Кондрашов\AppData\Local\Temp\VMBCore\arduino16x\1ff78a0346523d7d91af874899f893a8\variant\syscalls.c.o
delay                                             C:\Users\Данила Кондрашов\AppData\Local\Temp\VMBuilds\LAB8_NEW\stm32duino_genericSTM32F103C6\Release\core.a(wirish_time.cpp.o)
                                                  LAB8_NEW.cpp.o
delayMicroseconds                                 C:\Users\Данила Кондрашов\AppData\Local\Temp\VMBuilds\LAB8_NEW\stm32duino_genericSTM32F103C6\Release\core.a(wirish_time.cpp.o)
digitalRead(unsigned char)                        C:\Users\Данила Кондрашов\AppData\Local\Temp\VMBuilds\LAB8_NEW\stm32duino_genericSTM32F103C6\Release\core.a(wirish_digital.cpp.o)
                                                  LAB8_NEW.cpp.o
digitalWrite(unsigned char, unsigned char)        C:\Users\Данила Кондрашов\AppData\Local\Temp\VMBuilds\LAB8_NEW\stm32duino_genericSTM32F103C6\Release\core.a(wirish_digital.cpp.o)
                                                  LAB8_NEW.cpp.o
dispatch_extis                                    C:\Users\Данила Кондрашов\AppData\Local\Temp\VMBuilds\LAB8_NEW\stm32duino_genericSTM32F103C6\Release\core.a(exti.c.o)
dispatch_single_exti                              C:\Users\Данила Кондрашов\AppData\Local\Temp\VMBuilds\LAB8_NEW\stm32duino_genericSTM32F103C6\Release\core.a(exti.c.o)
dma2Ch4_5                                         C:\Users\Данила Кондрашов\AppData\Local\Temp\VMBuilds\LAB8_NEW\stm32duino_genericSTM32F103C6\Release\core.a(dma_f1.c.o)
dma_attach_interrupt                              C:\Users\Данила Кондрашов\AppData\Local\Temp\VMBuilds\LAB8_NEW\stm32duino_genericSTM32F103C6\Release\core.a(dma_f1.c.o)
dma_detach_interrupt                              C:\Users\Данила Кондрашов\AppData\Local\Temp\VMBuilds\LAB8_NEW\stm32duino_genericSTM32F103C6\Release\core.a(dma_f1.c.o)
dma_disable                                       C:\Users\Данила Кондрашов\AppData\Local\Temp\VMBuilds\LAB8_NEW\stm32duino_genericSTM32F103C6\Release\core.a(dma_f1.c.o)
dma_enable                                        C:\Users\Данила Кондрашов\AppData\Local\Temp\VMBuilds\LAB8_NEW\stm32duino_genericSTM32F103C6\Release\core.a(dma_f1.c.o)
dma_get_irq_cause                                 C:\Users\Данила Кондрашов\AppData\Local\Temp\VMBuilds\LAB8_NEW\stm32duino_genericSTM32F103C6\Release\core.a(dma_f1.c.o)
dma_init                                          C:\Users\Данила Кондрашов\AppData\Local\Temp\VMBuilds\LAB8_NEW\stm32duino_genericSTM32F103C6\Release\core.a(dma.c.o)
dma_set_mem_addr                                  C:\Users\Данила Кондрашов\AppData\Local\Temp\VMBuilds\LAB8_NEW\stm32duino_genericSTM32F103C6\Release\core.a(dma_f1.c.o)
dma_set_num_transfers                             C:\Users\Данила Кондрашов\AppData\Local\Temp\VMBuilds\LAB8_NEW\stm32duino_genericSTM32F103C6\Release\core.a(dma_f1.c.o)
dma_set_per_addr                                  C:\Users\Данила Кондрашов\AppData\Local\Temp\VMBuilds\LAB8_NEW\stm32duino_genericSTM32F103C6\Release\core.a(dma_f1.c.o)
dma_set_priority                                  C:\Users\Данила Кондрашов\AppData\Local\Temp\VMBuilds\LAB8_NEW\stm32duino_genericSTM32F103C6\Release\core.a(dma_f1.c.o)
dma_setup_transfer                                C:\Users\Данила Кондрашов\AppData\Local\Temp\VMBuilds\LAB8_NEW\stm32duino_genericSTM32F103C6\Release\core.a(dma_f1.c.o)
dma_tube_cfg                                      C:\Users\Данила Кондрашов\AppData\Local\Temp\VMBuilds\LAB8_NEW\stm32duino_genericSTM32F103C6\Release\core.a(dma_f1.c.o)
exit                                              c:/users/данила кондрашов/appdata/local/arduino15/packages/arduino/tools/arm-none-eabi-gcc/4.8.3-2014q1/bin/../lib/gcc/arm-none-eabi/4.8.3/../../../../arm-none-eabi/lib/armv7-m\libc_s.a(lib_a-exit.o)
                                                  c:/users/данила кондрашов/appdata/local/arduino15/packages/arduino/tools/arm-none-eabi-gcc/4.8.3-2014q1/bin/../lib/gcc/arm-none-eabi/4.8.3/../../../../arm-none-eabi/lib/armv7-m/crt0.o
exti_attach_callback                              C:\Users\Данила Кондрашов\AppData\Local\Temp\VMBuilds\LAB8_NEW\stm32duino_genericSTM32F103C6\Release\core.a(exti.c.o)
exti_attach_interrupt                             C:\Users\Данила Кондрашов\AppData\Local\Temp\VMBuilds\LAB8_NEW\stm32duino_genericSTM32F103C6\Release\core.a(exti.c.o)
exti_channels                                     C:\Users\Данила Кондрашов\AppData\Local\Temp\VMBuilds\LAB8_NEW\stm32duino_genericSTM32F103C6\Release\core.a(exti.c.o)
exti_detach_interrupt                             C:\Users\Данила Кондрашов\AppData\Local\Temp\VMBuilds\LAB8_NEW\stm32duino_genericSTM32F103C6\Release\core.a(exti.c.o)
exti_do_select                                    C:\Users\Данила Кондрашов\AppData\Local\Temp\VMBuilds\LAB8_NEW\stm32duino_genericSTM32F103C6\Release\core.a(exti.c.o)
                                                  C:\Users\Данила Кондрашов\AppData\Local\Temp\VMBuilds\LAB8_NEW\stm32duino_genericSTM32F103C6\Release\core.a(exti_f1.c.o)
exti_select                                       C:\Users\Данила Кондрашов\AppData\Local\Temp\VMBuilds\LAB8_NEW\stm32duino_genericSTM32F103C6\Release\core.a(exti_f1.c.o)
                                                  C:\Users\Данила Кондрашов\AppData\Local\Temp\VMBuilds\LAB8_NEW\stm32duino_genericSTM32F103C6\Release\core.a(exti.c.o)
fgets                                             C:\Users\Данила Кондрашов\AppData\Local\Temp\VMBCore\arduino16x\1ff78a0346523d7d91af874899f893a8\variant\syscalls.c.o
flash_set_latency                                 C:\Users\Данила Кондрашов\AppData\Local\Temp\VMBuilds\LAB8_NEW\stm32duino_genericSTM32F103C6\Release\core.a(flash.c.o)
                                                  C:\Users\Данила Кондрашов\AppData\Local\Temp\VMBCore\arduino16x\1ff78a0346523d7d91af874899f893a8\variant\wirish\boards.cpp.o
get_direction                                     C:\Users\Данила Кондрашов\AppData\Local\Temp\VMBuilds\LAB8_NEW\stm32duino_genericSTM32F103C6\Release\core.a(timer.c.o)
getch                                             C:\Users\Данила Кондрашов\AppData\Local\Temp\VMBCore\arduino16x\1ff78a0346523d7d91af874899f893a8\variant\syscalls.c.o
gpio_get_mode                                     C:\Users\Данила Кондрашов\AppData\Local\Temp\VMBuilds\LAB8_NEW\stm32duino_genericSTM32F103C6\Release\core.a(gpio_f1.c.o)
gpio_init                                         C:\Users\Данила Кондрашов\AppData\Local\Temp\VMBuilds\LAB8_NEW\stm32duino_genericSTM32F103C6\Release\core.a(gpio.c.o)
                                                  C:\Users\Данила Кондрашов\AppData\Local\Temp\VMBuilds\LAB8_NEW\stm32duino_genericSTM32F103C6\Release\core.a(gpio_f1.c.o)
gpio_init_all                                     C:\Users\Данила Кондрашов\AppData\Local\Temp\VMBuilds\LAB8_NEW\stm32duino_genericSTM32F103C6\Release\core.a(gpio_f1.c.o)
                                                  C:\Users\Данила Кондрашов\AppData\Local\Temp\VMBCore\arduino16x\1ff78a0346523d7d91af874899f893a8\variant\wirish\boards_setup.cpp.o
gpio_set_mode                                     C:\Users\Данила Кондрашов\AppData\Local\Temp\VMBuilds\LAB8_NEW\stm32duino_genericSTM32F103C6\Release\core.a(gpio_f1.c.o)
                                                  C:\Users\Данила Кондрашов\AppData\Local\Temp\VMBuilds\LAB8_NEW\stm32duino_genericSTM32F103C6\Release\core.a(wirish_digital_f1.cpp.o)
                                                  C:\Users\Данила Кондрашов\AppData\Local\Temp\VMBuilds\LAB8_NEW\stm32duino_genericSTM32F103C6\Release\core.a(usb_cdcacm.c.o)
                                                  C:\Users\Данила Кондрашов\AppData\Local\Temp\VMBuilds\LAB8_NEW\stm32duino_genericSTM32F103C6\Release\core.a(util.c.o)
                                                  C:\Users\Данила Кондрашов\AppData\Local\Temp\VMBuilds\LAB8_NEW\stm32duino_genericSTM32F103C6\Release\core.a(usart_f1.c.o)
                                                  C:\Users\Данила Кондрашов\AppData\Local\Temp\VMBuilds\LAB8_NEW\stm32duino_genericSTM32F103C6\Release\core.a(i2c_f1.c.o)
                                                  C:\Users\Данила Кондрашов\AppData\Local\Temp\VMBuilds\LAB8_NEW\stm32duino_genericSTM32F103C6\Release\core.a(adc_f1.c.o)
gpioa                                             C:\Users\Данила Кондрашов\AppData\Local\Temp\VMBuilds\LAB8_NEW\stm32duino_genericSTM32F103C6\Release\core.a(gpio_f1.c.o)
                                                  C:\Users\Данила Кондрашов\AppData\Local\Temp\VMBCore\arduino16x\1ff78a0346523d7d91af874899f893a8\variant\board.cpp.o
gpiob                                             C:\Users\Данила Кондрашов\AppData\Local\Temp\VMBuilds\LAB8_NEW\stm32duino_genericSTM32F103C6\Release\core.a(gpio_f1.c.o)
                                                  C:\Users\Данила Кондрашов\AppData\Local\Temp\VMBuilds\LAB8_NEW\stm32duino_genericSTM32F103C6\Release\core.a(i2c_f1.c.o)
                                                  C:\Users\Данила Кондрашов\AppData\Local\Temp\VMBCore\arduino16x\1ff78a0346523d7d91af874899f893a8\variant\board.cpp.o
gpioc                                             C:\Users\Данила Кондрашов\AppData\Local\Temp\VMBuilds\LAB8_NEW\stm32duino_genericSTM32F103C6\Release\core.a(gpio_f1.c.o)
                                                  C:\Users\Данила Кондрашов\AppData\Local\Temp\VMBCore\arduino16x\1ff78a0346523d7d91af874899f893a8\variant\board.cpp.o
gpiod                                             C:\Users\Данила Кондрашов\AppData\Local\Temp\VMBuilds\LAB8_NEW\stm32duino_genericSTM32F103C6\Release\core.a(gpio_f1.c.o)
hardware_init_hook                                c:/users/данила кондрашов/appdata/local/arduino15/packages/arduino/tools/arm-none-eabi-gcc/4.8.3-2014q1/bin/../lib/gcc/arm-none-eabi/4.8.3/../../../../arm-none-eabi/lib/armv7-m/crt0.o
i2c_bus_reset                                     C:\Users\Данила Кондрашов\AppData\Local\Temp\VMBuilds\LAB8_NEW\stm32duino_genericSTM32F103C6\Release\core.a(i2c.c.o)
i2c_config_gpios                                  C:\Users\Данила Кондрашов\AppData\Local\Temp\VMBuilds\LAB8_NEW\stm32duino_genericSTM32F103C6\Release\core.a(i2c_f1.c.o)
                                                  C:\Users\Данила Кондрашов\AppData\Local\Temp\VMBuilds\LAB8_NEW\stm32duino_genericSTM32F103C6\Release\core.a(i2c.c.o)
i2c_init                                          C:\Users\Данила Кондрашов\AppData\Local\Temp\VMBuilds\LAB8_NEW\stm32duino_genericSTM32F103C6\Release\core.a(i2c.c.o)
i2c_master_enable                                 C:\Users\Данила Кондрашов\AppData\Local\Temp\VMBuilds\LAB8_NEW\stm32duino_genericSTM32F103C6\Release\core.a(i2c.c.o)
                                                  Wire\Wire.cpp.o
i2c_master_release_bus                            C:\Users\Данила Кондрашов\AppData\Local\Temp\VMBuilds\LAB8_NEW\stm32duino_genericSTM32F103C6\Release\core.a(i2c_f1.c.o)
                                                  C:\Users\Данила Кондрашов\AppData\Local\Temp\VMBuilds\LAB8_NEW\stm32duino_genericSTM32F103C6\Release\core.a(i2c.c.o)
i2c_master_xfer                                   C:\Users\Данила Кондрашов\AppData\Local\Temp\VMBuilds\LAB8_NEW\stm32duino_genericSTM32F103C6\Release\core.a(i2c.c.o)
                                                  Wire\Wire.cpp.o
i2c_set_ccr_trise                                 C:\Users\Данила Кондрашов\AppData\Local\Temp\VMBuilds\LAB8_NEW\stm32duino_genericSTM32F103C6\Release\core.a(i2c.c.o)
i2c_slave_attach_recv_handler                     C:\Users\Данила Кондрашов\AppData\Local\Temp\VMBuilds\LAB8_NEW\stm32duino_genericSTM32F103C6\Release\core.a(i2c.c.o)
i2c_slave_attach_transmit_handler                 C:\Users\Данила Кондрашов\AppData\Local\Temp\VMBuilds\LAB8_NEW\stm32duino_genericSTM32F103C6\Release\core.a(i2c.c.o)
i2c_slave_enable                                  C:\Users\Данила Кондрашов\AppData\Local\Temp\VMBuilds\LAB8_NEW\stm32duino_genericSTM32F103C6\Release\core.a(i2c.c.o)
init()                                            C:\Users\Данила Кондрашов\AppData\Local\Temp\VMBCore\arduino16x\1ff78a0346523d7d91af874899f893a8\variant\wirish\boards.cpp.o
                                                  C:\Users\Данила Кондрашов\AppData\Local\Temp\VMBuilds\LAB8_NEW\stm32duino_genericSTM32F103C6\Release\core.a(main.cpp.o)
input_capture_mode                                C:\Users\Данила Кондрашов\AppData\Local\Temp\VMBuilds\LAB8_NEW\stm32duino_genericSTM32F103C6\Release\core.a(timer.c.o)
isatty                                            C:\Users\Данила Кондрашов\AppData\Local\Temp\VMBCore\arduino16x\1ff78a0346523d7d91af874899f893a8\variant\syscalls.c.o
lm75a                                             LAB8_NEW.cpp.o
loop()                                            LAB8_NEW.cpp.o
                                                  C:\Users\Данила Кондрашов\AppData\Local\Temp\VMBuilds\LAB8_NEW\stm32duino_genericSTM32F103C6\Release\core.a(main.cpp.o)
main                                              C:\Users\Данила Кондрашов\AppData\Local\Temp\VMBuilds\LAB8_NEW\stm32duino_genericSTM32F103C6\Release\core.a(main.cpp.o)
                                                  C:\Users\Данила Кондрашов\AppData\Local\Temp\VMBCore\arduino16x\1ff78a0346523d7d91af874899f893a8\variant\start_c.c.o
                                                  c:/users/данила кондрашов/appdata/local/arduino15/packages/arduino/tools/arm-none-eabi-gcc/4.8.3-2014q1/bin/../lib/gcc/arm-none-eabi/4.8.3/../../../../arm-none-eabi/lib/armv7-m/crt0.o
memset                                            c:/users/данила кондрашов/appdata/local/arduino15/packages/arduino/tools/arm-none-eabi-gcc/4.8.3-2014q1/bin/../lib/gcc/arm-none-eabi/4.8.3/../../../../arm-none-eabi/lib/armv7-m\libc_s.a(lib_a-memset.o)
                                                  c:/users/данила кондрашов/appdata/local/arduino15/packages/arduino/tools/arm-none-eabi-gcc/4.8.3-2014q1/bin/../lib/gcc/arm-none-eabi/4.8.3/../../../../arm-none-eabi/lib/armv7-m/crt0.o
noTone(unsigned long)                             C:\Users\Данила Кондрашов\AppData\Local\Temp\VMBuilds\LAB8_NEW\stm32duino_genericSTM32F103C6\Release\core.a(tone.cpp.o)
nvic_init                                         C:\Users\Данила Кондрашов\AppData\Local\Temp\VMBuilds\LAB8_NEW\stm32duino_genericSTM32F103C6\Release\core.a(nvic.c.o)
                                                  C:\Users\Данила Кондрашов\AppData\Local\Temp\VMBCore\arduino16x\1ff78a0346523d7d91af874899f893a8\variant\wirish\boards.cpp.o
nvic_irq_set_priority                             C:\Users\Данила Кондрашов\AppData\Local\Temp\VMBuilds\LAB8_NEW\stm32duino_genericSTM32F103C6\Release\core.a(nvic.c.o)
                                                  C:\Users\Данила Кондрашов\AppData\Local\Temp\VMBuilds\LAB8_NEW\stm32duino_genericSTM32F103C6\Release\core.a(i2c_f1.c.o)
nvic_set_vector_table                             C:\Users\Данила Кондрашов\AppData\Local\Temp\VMBuilds\LAB8_NEW\stm32duino_genericSTM32F103C6\Release\core.a(nvic.c.o)
nvic_sys_reset                                    C:\Users\Данила Кондрашов\AppData\Local\Temp\VMBuilds\LAB8_NEW\stm32duino_genericSTM32F103C6\Release\core.a(nvic.c.o)
pInformation                                      C:\Users\Данила Кондрашов\AppData\Local\Temp\VMBuilds\LAB8_NEW\stm32duino_genericSTM32F103C6\Release\core.a(usb_init.c.o)
                                                  C:\Users\Данила Кондрашов\AppData\Local\Temp\VMBuilds\LAB8_NEW\stm32duino_genericSTM32F103C6\Release\core.a(usb_core.c.o)
                                                  C:\Users\Данила Кондрашов\AppData\Local\Temp\VMBuilds\LAB8_NEW\stm32duino_genericSTM32F103C6\Release\core.a(usb_cdcacm.c.o)
                                                  C:\Users\Данила Кондрашов\AppData\Local\Temp\VMBuilds\LAB8_NEW\stm32duino_genericSTM32F103C6\Release\core.a(usb.c.o)
pProperty                                         C:\Users\Данила Кондрашов\AppData\Local\Temp\VMBuilds\LAB8_NEW\stm32duino_genericSTM32F103C6\Release\core.a(usb_init.c.o)
                                                  C:\Users\Данила Кондрашов\AppData\Local\Temp\VMBuilds\LAB8_NEW\stm32duino_genericSTM32F103C6\Release\core.a(usb_core.c.o)
                                                  C:\Users\Данила Кондрашов\AppData\Local\Temp\VMBuilds\LAB8_NEW\stm32duino_genericSTM32F103C6\Release\core.a(usb_cdcacm.c.o)
                                                  C:\Users\Данила Кондрашов\AppData\Local\Temp\VMBuilds\LAB8_NEW\stm32duino_genericSTM32F103C6\Release\core.a(usb.c.o)
pUser_Standard_Requests                           C:\Users\Данила Кондрашов\AppData\Local\Temp\VMBuilds\LAB8_NEW\stm32duino_genericSTM32F103C6\Release\core.a(usb_init.c.o)
                                                  C:\Users\Данила Кондрашов\AppData\Local\Temp\VMBuilds\LAB8_NEW\stm32duino_genericSTM32F103C6\Release\core.a(usb_core.c.o)
                                                  C:\Users\Данила Кондрашов\AppData\Local\Temp\VMBuilds\LAB8_NEW\stm32duino_genericSTM32F103C6\Release\core.a(usb.c.o)
pinMode(unsigned char, WiringPinMode)             C:\Users\Данила Кондрашов\AppData\Local\Temp\VMBuilds\LAB8_NEW\stm32duino_genericSTM32F103C6\Release\core.a(wirish_digital_f1.cpp.o)
                                                  C:\Users\Данила Кондрашов\AppData\Local\Temp\VMBuilds\LAB8_NEW\stm32duino_genericSTM32F103C6\Release\core.a(tone.cpp.o)
                                                  C:\Users\Данила Кондрашов\AppData\Local\Temp\VMBuilds\LAB8_NEW\stm32duino_genericSTM32F103C6\Release\core.a(pwm.cpp.o)
                                                  Wire\SoftWire.cpp.o
                                                  LAB8_NEW.cpp.o
premain()                                         C:\Users\Данила Кондрашов\AppData\Local\Temp\VMBuilds\LAB8_NEW\stm32duino_genericSTM32F103C6\Release\core.a(main.cpp.o)
putch                                             C:\Users\Данила Кондрашов\AppData\Local\Temp\VMBCore\arduino16x\1ff78a0346523d7d91af874899f893a8\variant\syscalls.c.o
pwmWrite(unsigned char, unsigned short)           C:\Users\Данила Кондрашов\AppData\Local\Temp\VMBuilds\LAB8_NEW\stm32duino_genericSTM32F103C6\Release\core.a(pwm.cpp.o)
rcc_clk_disable                                   C:\Users\Данила Кондрашов\AppData\Local\Temp\VMBuilds\LAB8_NEW\stm32duino_genericSTM32F103C6\Release\core.a(rcc_f1.c.o)
                                                  C:\Users\Данила Кондрашов\AppData\Local\Temp\VMBCore\arduino16x\1ff78a0346523d7d91af874899f893a8\variant\wirish\boards_setup.cpp.o
rcc_clk_enable                                    C:\Users\Данила Кондрашов\AppData\Local\Temp\VMBuilds\LAB8_NEW\stm32duino_genericSTM32F103C6\Release\core.a(rcc_f1.c.o)
                                                  C:\Users\Данила Кондрашов\AppData\Local\Temp\VMBuilds\LAB8_NEW\stm32duino_genericSTM32F103C6\Release\core.a(usart.c.o)
                                                  C:\Users\Данила Кондрашов\AppData\Local\Temp\VMBuilds\LAB8_NEW\stm32duino_genericSTM32F103C6\Release\core.a(gpio.c.o)
                                                  C:\Users\Данила Кондрашов\AppData\Local\Temp\VMBuilds\LAB8_NEW\stm32duino_genericSTM32F103C6\Release\core.a(dma.c.o)
                                                  C:\Users\Данила Кондрашов\AppData\Local\Temp\VMBuilds\LAB8_NEW\stm32duino_genericSTM32F103C6\Release\core.a(usb.c.o)
                                                  C:\Users\Данила Кондрашов\AppData\Local\Temp\VMBuilds\LAB8_NEW\stm32duino_genericSTM32F103C6\Release\core.a(timer.c.o)
                                                  C:\Users\Данила Кондрашов\AppData\Local\Temp\VMBuilds\LAB8_NEW\stm32duino_genericSTM32F103C6\Release\core.a(i2c.c.o)
                                                  C:\Users\Данила Кондрашов\AppData\Local\Temp\VMBuilds\LAB8_NEW\stm32duino_genericSTM32F103C6\Release\core.a(gpio_f1.c.o)
                                                  C:\Users\Данила Кондрашов\AppData\Local\Temp\VMBuilds\LAB8_NEW\stm32duino_genericSTM32F103C6\Release\core.a(adc.c.o)
rcc_clk_init                                      C:\Users\Данила Кондрашов\AppData\Local\Temp\VMBuilds\LAB8_NEW\stm32duino_genericSTM32F103C6\Release\core.a(rcc_f1.c.o)
rcc_configure_pll                                 C:\Users\Данила Кондрашов\AppData\Local\Temp\VMBuilds\LAB8_NEW\stm32duino_genericSTM32F103C6\Release\core.a(rcc_f1.c.o)
                                                  C:\Users\Данила Кондрашов\AppData\Local\Temp\VMBCore\arduino16x\1ff78a0346523d7d91af874899f893a8\variant\wirish\boards.cpp.o
rcc_dev_clk                                       C:\Users\Данила Кондрашов\AppData\Local\Temp\VMBuilds\LAB8_NEW\stm32duino_genericSTM32F103C6\Release\core.a(rcc.c.o)
                                                  C:\Users\Данила Кондрашов\AppData\Local\Temp\VMBuilds\LAB8_NEW\stm32duino_genericSTM32F103C6\Release\core.a(usart_private.c.o)
                                                  C:\Users\Данила Кондрашов\AppData\Local\Temp\VMBuilds\LAB8_NEW\stm32duino_genericSTM32F103C6\Release\core.a(rcc_f1.c.o)
rcc_dev_table                                     C:\Users\Данила Кондрашов\AppData\Local\Temp\VMBuilds\LAB8_NEW\stm32duino_genericSTM32F103C6\Release\core.a(rcc_f1.c.o)
                                                  C:\Users\Данила Кондрашов\AppData\Local\Temp\VMBuilds\LAB8_NEW\stm32duino_genericSTM32F103C6\Release\core.a(rcc.c.o)
rcc_is_clk_on                                     C:\Users\Данила Кондрашов\AppData\Local\Temp\VMBuilds\LAB8_NEW\stm32duino_genericSTM32F103C6\Release\core.a(rcc.c.o)
rcc_is_clk_ready                                  C:\Users\Данила Кондрашов\AppData\Local\Temp\VMBuilds\LAB8_NEW\stm32duino_genericSTM32F103C6\Release\core.a(rcc.c.o)
                                                  C:\Users\Данила Кондрашов\AppData\Local\Temp\VMBuilds\LAB8_NEW\stm32duino_genericSTM32F103C6\Release\core.a(rcc_f1.c.o)
                                                  C:\Users\Данила Кондрашов\AppData\Local\Temp\VMBCore\arduino16x\1ff78a0346523d7d91af874899f893a8\variant\wirish\boards.cpp.o
rcc_reset_dev                                     C:\Users\Данила Кондрашов\AppData\Local\Temp\VMBuilds\LAB8_NEW\stm32duino_genericSTM32F103C6\Release\core.a(rcc_f1.c.o)
                                                  C:\Users\Данила Кондрашов\AppData\Local\Temp\VMBuilds\LAB8_NEW\stm32duino_genericSTM32F103C6\Release\core.a(gpio.c.o)
                                                  C:\Users\Данила Кондрашов\AppData\Local\Temp\VMBuilds\LAB8_NEW\stm32duino_genericSTM32F103C6\Release\core.a(timer.c.o)
                                                  C:\Users\Данила Кондрашов\AppData\Local\Temp\VMBuilds\LAB8_NEW\stm32duino_genericSTM32F103C6\Release\core.a(i2c.c.o)
                                                  C:\Users\Данила Кондрашов\AppData\Local\Temp\VMBuilds\LAB8_NEW\stm32duino_genericSTM32F103C6\Release\core.a(gpio_f1.c.o)
                                                  C:\Users\Данила Кондрашов\AppData\Local\Temp\VMBuilds\LAB8_NEW\stm32duino_genericSTM32F103C6\Release\core.a(adc.c.o)
rcc_set_prescaler                                 C:\Users\Данила Кондрашов\AppData\Local\Temp\VMBuilds\LAB8_NEW\stm32duino_genericSTM32F103C6\Release\core.a(rcc_f1.c.o)
                                                  C:\Users\Данила Кондрашов\AppData\Local\Temp\VMBuilds\LAB8_NEW\stm32duino_genericSTM32F103C6\Release\core.a(adc_f1.c.o)
                                                  C:\Users\Данила Кондрашов\AppData\Local\Temp\VMBCore\arduino16x\1ff78a0346523d7d91af874899f893a8\variant\wirish\boards_setup.cpp.o
rcc_switch_sysclk                                 C:\Users\Данила Кондрашов\AppData\Local\Temp\VMBuilds\LAB8_NEW\stm32duino_genericSTM32F103C6\Release\core.a(rcc.c.o)
                                                  C:\Users\Данила Кондрашов\AppData\Local\Temp\VMBuilds\LAB8_NEW\stm32duino_genericSTM32F103C6\Release\core.a(rcc_f1.c.o)
                                                  C:\Users\Данила Кондрашов\AppData\Local\Temp\VMBCore\arduino16x\1ff78a0346523d7d91af874899f893a8\variant\wirish\boards.cpp.o
rcc_turn_off_clk                                  C:\Users\Данила Кондрашов\AppData\Local\Temp\VMBuilds\LAB8_NEW\stm32duino_genericSTM32F103C6\Release\core.a(rcc.c.o)
                                                  C:\Users\Данила Кондрашов\AppData\Local\Temp\VMBCore\arduino16x\1ff78a0346523d7d91af874899f893a8\variant\wirish\boards.cpp.o
rcc_turn_on_clk                                   C:\Users\Данила Кондрашов\AppData\Local\Temp\VMBuilds\LAB8_NEW\stm32duino_genericSTM32F103C6\Release\core.a(rcc.c.o)
                                                  C:\Users\Данила Кондрашов\AppData\Local\Temp\VMBuilds\LAB8_NEW\stm32duino_genericSTM32F103C6\Release\core.a(rcc_f1.c.o)
                                                  C:\Users\Данила Кондрашов\AppData\Local\Temp\VMBCore\arduino16x\1ff78a0346523d7d91af874899f893a8\variant\wirish\boards.cpp.o
setToneTimerChannel(unsigned char, unsigned char) C:\Users\Данила Кондрашов\AppData\Local\Temp\VMBuilds\LAB8_NEW\stm32duino_genericSTM32F103C6\Release\core.a(tone.cpp.o)
setup()                                           LAB8_NEW.cpp.o
                                                  C:\Users\Данила Кондрашов\AppData\Local\Temp\VMBuilds\LAB8_NEW\stm32duino_genericSTM32F103C6\Release\core.a(main.cpp.o)
software_init_hook                                c:/users/данила кондрашов/appdata/local/arduino15/packages/arduino/tools/arm-none-eabi-gcc/4.8.3-2014q1/bin/../lib/gcc/arm-none-eabi/4.8.3/../../../../arm-none-eabi/lib/armv7-m/crt0.o
start_c                                           C:\Users\Данила Кондрашов\AppData\Local\Temp\VMBCore\arduino16x\1ff78a0346523d7d91af874899f893a8\variant\start_c.c.o
                                                  C:\Users\Данила Кондрашов\AppData\Local\Temp\VMBCore\arduino16x\1ff78a0346523d7d91af874899f893a8\variant\start.S.o
strcpy                                            c:/users/данила кондрашов/appdata/local/arduino15/packages/arduino/tools/arm-none-eabi-gcc/4.8.3-2014q1/bin/../lib/gcc/arm-none-eabi/4.8.3/../../../../arm-none-eabi/lib/armv7-m\libc_s.a(lib_a-strcpy.o)
                                                  C:\Users\Данила Кондрашов\AppData\Local\Temp\VMBuilds\LAB8_NEW\stm32duino_genericSTM32F103C6\Release\core.a(cxxabi-compat.cpp.o)
strlen                                            c:/users/данила кондрашов/appdata/local/arduino15/packages/arduino/tools/arm-none-eabi-gcc/4.8.3-2014q1/bin/../lib/gcc/arm-none-eabi/4.8.3/../../../../arm-none-eabi/lib/armv7-m\libc_s.a(lib_a-strlen.o)
                                                  C:\Users\Данила Кондрашов\AppData\Local\Temp\VMBuilds\LAB8_NEW\stm32duino_genericSTM32F103C6\Release\core.a(Print.cpp.o)
systick_attach_callback                           C:\Users\Данила Кондрашов\AppData\Local\Temp\VMBuilds\LAB8_NEW\stm32duino_genericSTM32F103C6\Release\core.a(systick.c.o)
systick_disable                                   C:\Users\Данила Кондрашов\AppData\Local\Temp\VMBuilds\LAB8_NEW\stm32duino_genericSTM32F103C6\Release\core.a(systick.c.o)
systick_enable                                    C:\Users\Данила Кондрашов\AppData\Local\Temp\VMBuilds\LAB8_NEW\stm32duino_genericSTM32F103C6\Release\core.a(systick.c.o)
systick_init                                      C:\Users\Данила Кондрашов\AppData\Local\Temp\VMBuilds\LAB8_NEW\stm32duino_genericSTM32F103C6\Release\core.a(systick.c.o)
                                                  C:\Users\Данила Кондрашов\AppData\Local\Temp\VMBCore\arduino16x\1ff78a0346523d7d91af874899f893a8\variant\wirish\boards.cpp.o
systick_uptime_millis                             C:\Users\Данила Кондрашов\AppData\Local\Temp\VMBuilds\LAB8_NEW\stm32duino_genericSTM32F103C6\Release\core.a(wirish_time.cpp.o)
                                                  C:\Users\Данила Кондрашов\AppData\Local\Temp\VMBuilds\LAB8_NEW\stm32duino_genericSTM32F103C6\Release\core.a(systick.c.o)
                                                  C:\Users\Данила Кондрашов\AppData\Local\Temp\VMBuilds\LAB8_NEW\stm32duino_genericSTM32F103C6\Release\core.a(i2c.c.o)
throb                                             C:\Users\Данила Кондрашов\AppData\Local\Temp\VMBuilds\LAB8_NEW\stm32duino_genericSTM32F103C6\Release\core.a(util.c.o)
timer1                                            C:\Users\Данила Кондрашов\AppData\Local\Temp\VMBuilds\LAB8_NEW\stm32duino_genericSTM32F103C6\Release\core.a(timer.c.o)
                                                  C:\Users\Данила Кондрашов\AppData\Local\Temp\VMBCore\arduino16x\1ff78a0346523d7d91af874899f893a8\variant\board.cpp.o
timer2                                            C:\Users\Данила Кондрашов\AppData\Local\Temp\VMBuilds\LAB8_NEW\stm32duino_genericSTM32F103C6\Release\core.a(timer.c.o)
                                                  C:\Users\Данила Кондрашов\AppData\Local\Temp\VMBCore\arduino16x\1ff78a0346523d7d91af874899f893a8\variant\board.cpp.o
timer3                                            C:\Users\Данила Кондрашов\AppData\Local\Temp\VMBuilds\LAB8_NEW\stm32duino_genericSTM32F103C6\Release\core.a(timer.c.o)
                                                  C:\Users\Данила Кондрашов\AppData\Local\Temp\VMBCore\arduino16x\1ff78a0346523d7d91af874899f893a8\variant\board.cpp.o
timer4                                            C:\Users\Данила Кондрашов\AppData\Local\Temp\VMBuilds\LAB8_NEW\stm32duino_genericSTM32F103C6\Release\core.a(timer.c.o)
                                                  C:\Users\Данила Кондрашов\AppData\Local\Temp\VMBCore\arduino16x\1ff78a0346523d7d91af874899f893a8\variant\board.cpp.o
timer_attach_interrupt                            C:\Users\Данила Кондрашов\AppData\Local\Temp\VMBuilds\LAB8_NEW\stm32duino_genericSTM32F103C6\Release\core.a(timer.c.o)
                                                  C:\Users\Данила Кондрашов\AppData\Local\Temp\VMBuilds\LAB8_NEW\stm32duino_genericSTM32F103C6\Release\core.a(HardwareTimer.cpp.o)
timer_detach_interrupt                            C:\Users\Данила Кондрашов\AppData\Local\Temp\VMBuilds\LAB8_NEW\stm32duino_genericSTM32F103C6\Release\core.a(timer.c.o)
                                                  C:\Users\Данила Кондрашов\AppData\Local\Temp\VMBuilds\LAB8_NEW\stm32duino_genericSTM32F103C6\Release\core.a(HardwareTimer.cpp.o)
timer_disable                                     C:\Users\Данила Кондрашов\AppData\Local\Temp\VMBuilds\LAB8_NEW\stm32duino_genericSTM32F103C6\Release\core.a(timer.c.o)
timer_foreach                                     C:\Users\Данила Кондрашов\AppData\Local\Temp\VMBuilds\LAB8_NEW\stm32duino_genericSTM32F103C6\Release\core.a(timer.c.o)
                                                  C:\Users\Данила Кондрашов\AppData\Local\Temp\VMBuilds\LAB8_NEW\stm32duino_genericSTM32F103C6\Release\core.a(HardwareTimer.cpp.o)
                                                  C:\Users\Данила Кондрашов\AppData\Local\Temp\VMBCore\arduino16x\1ff78a0346523d7d91af874899f893a8\variant\wirish\boards.cpp.o
timer_has_cc_channel                              C:\Users\Данила Кондрашов\AppData\Local\Temp\VMBuilds\LAB8_NEW\stm32duino_genericSTM32F103C6\Release\core.a(timer.c.o)
                                                  C:\Users\Данила Кондрашов\AppData\Local\Temp\VMBCore\arduino16x\1ff78a0346523d7d91af874899f893a8\variant\wirish\boards.cpp.o
timer_init                                        C:\Users\Данила Кондрашов\AppData\Local\Temp\VMBuilds\LAB8_NEW\stm32duino_genericSTM32F103C6\Release\core.a(timer.c.o)
                                                  C:\Users\Данила Кондрашов\AppData\Local\Temp\VMBCore\arduino16x\1ff78a0346523d7d91af874899f893a8\variant\wirish\boards.cpp.o
timer_set_mode                                    C:\Users\Данила Кондрашов\AppData\Local\Temp\VMBuilds\LAB8_NEW\stm32duino_genericSTM32F103C6\Release\core.a(timer.c.o)
                                                  C:\Users\Данила Кондрашов\AppData\Local\Temp\VMBuilds\LAB8_NEW\stm32duino_genericSTM32F103C6\Release\core.a(HardwareTimer.cpp.o)
                                                  C:\Users\Данила Кондрашов\AppData\Local\Temp\VMBuilds\LAB8_NEW\stm32duino_genericSTM32F103C6\Release\core.a(wirish_digital_f1.cpp.o)
                                                  C:\Users\Данила Кондрашов\AppData\Local\Temp\VMBuilds\LAB8_NEW\stm32duino_genericSTM32F103C6\Release\core.a(HardwareSerial.cpp.o)
tone(unsigned long, unsigned long, unsigned long) C:\Users\Данила Кондрашов\AppData\Local\Temp\VMBuilds\LAB8_NEW\stm32duino_genericSTM32F103C6\Release\core.a(tone.cpp.o)
                                                  LAB8_NEW.cpp.o
tone_bsrr                                         C:\Users\Данила Кондрашов\AppData\Local\Temp\VMBuilds\LAB8_NEW\stm32duino_genericSTM32F103C6\Release\core.a(tone.cpp.o)
tone_channel                                      C:\Users\Данила Кондрашов\AppData\Local\Temp\VMBuilds\LAB8_NEW\stm32duino_genericSTM32F103C6\Release\core.a(tone.cpp.o)
tone_force_channel                                C:\Users\Данила Кондрашов\AppData\Local\Temp\VMBuilds\LAB8_NEW\stm32duino_genericSTM32F103C6\Release\core.a(tone.cpp.o)
tone_force_ntimer                                 C:\Users\Данила Кондрашов\AppData\Local\Temp\VMBuilds\LAB8_NEW\stm32duino_genericSTM32F103C6\Release\core.a(tone.cpp.o)
tone_freq                                         C:\Users\Данила Кондрашов\AppData\Local\Temp\VMBuilds\LAB8_NEW\stm32duino_genericSTM32F103C6\Release\core.a(tone.cpp.o)
tone_handler_1()                                  C:\Users\Данила Кондрашов\AppData\Local\Temp\VMBuilds\LAB8_NEW\stm32duino_genericSTM32F103C6\Release\core.a(tone.cpp.o)
tone_handler_2()                                  C:\Users\Данила Кондрашов\AppData\Local\Temp\VMBuilds\LAB8_NEW\stm32duino_genericSTM32F103C6\Release\core.a(tone.cpp.o)
tone_n                                            C:\Users\Данила Кондрашов\AppData\Local\Temp\VMBuilds\LAB8_NEW\stm32duino_genericSTM32F103C6\Release\core.a(tone.cpp.o)
tone_ncount                                       C:\Users\Данила Кондрашов\AppData\Local\Temp\VMBuilds\LAB8_NEW\stm32duino_genericSTM32F103C6\Release\core.a(tone.cpp.o)
tone_next                                         C:\Users\Данила Кондрашов\AppData\Local\Temp\VMBuilds\LAB8_NEW\stm32duino_genericSTM32F103C6\Release\core.a(tone.cpp.o)
tone_nhw                                          C:\Users\Данила Кондрашов\AppData\Local\Temp\VMBuilds\LAB8_NEW\stm32duino_genericSTM32F103C6\Release\core.a(tone.cpp.o)
tone_ntimer                                       C:\Users\Данила Кондрашов\AppData\Local\Temp\VMBuilds\LAB8_NEW\stm32duino_genericSTM32F103C6\Release\core.a(tone.cpp.o)
tone_pin                                          C:\Users\Данила Кондрашов\AppData\Local\Temp\VMBuilds\LAB8_NEW\stm32duino_genericSTM32F103C6\Release\core.a(tone.cpp.o)
tone_rmask                                        C:\Users\Данила Кондрашов\AppData\Local\Temp\VMBuilds\LAB8_NEW\stm32duino_genericSTM32F103C6\Release\core.a(tone.cpp.o)
tone_smask                                        C:\Users\Данила Кондрашов\AppData\Local\Temp\VMBuilds\LAB8_NEW\stm32duino_genericSTM32F103C6\Release\core.a(tone.cpp.o)
tone_state                                        C:\Users\Данила Кондрашов\AppData\Local\Temp\VMBuilds\LAB8_NEW\stm32duino_genericSTM32F103C6\Release\core.a(tone.cpp.o)
tone_tcount                                       C:\Users\Данила Кондрашов\AppData\Local\Temp\VMBuilds\LAB8_NEW\stm32duino_genericSTM32F103C6\Release\core.a(tone.cpp.o)
tone_timer                                        C:\Users\Данила Кондрашов\AppData\Local\Temp\VMBuilds\LAB8_NEW\stm32duino_genericSTM32F103C6\Release\core.a(tone.cpp.o)
usart_config_gpios_async                          C:\Users\Данила Кондрашов\AppData\Local\Temp\VMBuilds\LAB8_NEW\stm32duino_genericSTM32F103C6\Release\core.a(usart_f1.c.o)
                                                  C:\Users\Данила Кондрашов\AppData\Local\Temp\VMBuilds\LAB8_NEW\stm32duino_genericSTM32F103C6\Release\core.a(HardwareSerial.cpp.o)
usart_disable                                     C:\Users\Данила Кондрашов\AppData\Local\Temp\VMBuilds\LAB8_NEW\stm32duino_genericSTM32F103C6\Release\core.a(usart.c.o)
                                                  C:\Users\Данила Кондрашов\AppData\Local\Temp\VMBuilds\LAB8_NEW\stm32duino_genericSTM32F103C6\Release\core.a(HardwareSerial.cpp.o)
usart_enable                                      C:\Users\Данила Кондрашов\AppData\Local\Temp\VMBuilds\LAB8_NEW\stm32duino_genericSTM32F103C6\Release\core.a(usart.c.o)
                                                  C:\Users\Данила Кондрашов\AppData\Local\Temp\VMBuilds\LAB8_NEW\stm32duino_genericSTM32F103C6\Release\core.a(HardwareSerial.cpp.o)
usart_foreach                                     C:\Users\Данила Кондрашов\AppData\Local\Temp\VMBuilds\LAB8_NEW\stm32duino_genericSTM32F103C6\Release\core.a(usart_f1.c.o)
usart_init                                        C:\Users\Данила Кондрашов\AppData\Local\Temp\VMBuilds\LAB8_NEW\stm32duino_genericSTM32F103C6\Release\core.a(usart.c.o)
                                                  C:\Users\Данила Кондрашов\AppData\Local\Temp\VMBuilds\LAB8_NEW\stm32duino_genericSTM32F103C6\Release\core.a(HardwareSerial.cpp.o)
usart_putudec                                     C:\Users\Данила Кондрашов\AppData\Local\Temp\VMBuilds\LAB8_NEW\stm32duino_genericSTM32F103C6\Release\core.a(usart.c.o)
                                                  C:\Users\Данила Кондрашов\AppData\Local\Temp\VMBuilds\LAB8_NEW\stm32duino_genericSTM32F103C6\Release\core.a(util.c.o)
usart_rx                                          C:\Users\Данила Кондрашов\AppData\Local\Temp\VMBuilds\LAB8_NEW\stm32duino_genericSTM32F103C6\Release\core.a(usart.c.o)
usart_set_baud_rate                               C:\Users\Данила Кондрашов\AppData\Local\Temp\VMBuilds\LAB8_NEW\stm32duino_genericSTM32F103C6\Release\core.a(usart_f1.c.o)
                                                  C:\Users\Данила Кондрашов\AppData\Local\Temp\VMBuilds\LAB8_NEW\stm32duino_genericSTM32F103C6\Release\core.a(HardwareSerial.cpp.o)
usart_tx                                          C:\Users\Данила Кондрашов\AppData\Local\Temp\VMBuilds\LAB8_NEW\stm32duino_genericSTM32F103C6\Release\core.a(usart.c.o)
                                                  C:\Users\Данила Кондрашов\AppData\Local\Temp\VMBuilds\LAB8_NEW\stm32duino_genericSTM32F103C6\Release\core.a(HardwareSerial.cpp.o)
                                                  C:\Users\Данила Кондрашов\AppData\Local\Temp\VMBuilds\LAB8_NEW\stm32duino_genericSTM32F103C6\Release\core.a(util.c.o)
usb_cdcacm_data_available                         C:\Users\Данила Кондрашов\AppData\Local\Temp\VMBuilds\LAB8_NEW\stm32duino_genericSTM32F103C6\Release\core.a(usb_cdcacm.c.o)
usb_cdcacm_disable                                C:\Users\Данила Кондрашов\AppData\Local\Temp\VMBuilds\LAB8_NEW\stm32duino_genericSTM32F103C6\Release\core.a(usb_cdcacm.c.o)
usb_cdcacm_enable                                 C:\Users\Данила Кондрашов\AppData\Local\Temp\VMBuilds\LAB8_NEW\stm32duino_genericSTM32F103C6\Release\core.a(usb_cdcacm.c.o)
usb_cdcacm_get_baud                               C:\Users\Данила Кондрашов\AppData\Local\Temp\VMBuilds\LAB8_NEW\stm32duino_genericSTM32F103C6\Release\core.a(usb_cdcacm.c.o)
usb_cdcacm_get_dtr                                C:\Users\Данила Кондрашов\AppData\Local\Temp\VMBuilds\LAB8_NEW\stm32duino_genericSTM32F103C6\Release\core.a(usb_cdcacm.c.o)
usb_cdcacm_get_line_coding                        C:\Users\Данила Кондрашов\AppData\Local\Temp\VMBuilds\LAB8_NEW\stm32duino_genericSTM32F103C6\Release\core.a(usb_cdcacm.c.o)
usb_cdcacm_get_n_data_bits                        C:\Users\Данила Кондрашов\AppData\Local\Temp\VMBuilds\LAB8_NEW\stm32duino_genericSTM32F103C6\Release\core.a(usb_cdcacm.c.o)
usb_cdcacm_get_parity                             C:\Users\Данила Кондрашов\AppData\Local\Temp\VMBuilds\LAB8_NEW\stm32duino_genericSTM32F103C6\Release\core.a(usb_cdcacm.c.o)
usb_cdcacm_get_pending                            C:\Users\Данила Кондрашов\AppData\Local\Temp\VMBuilds\LAB8_NEW\stm32duino_genericSTM32F103C6\Release\core.a(usb_cdcacm.c.o)
usb_cdcacm_get_rts                                C:\Users\Данила Кондрашов\AppData\Local\Temp\VMBuilds\LAB8_NEW\stm32duino_genericSTM32F103C6\Release\core.a(usb_cdcacm.c.o)
usb_cdcacm_get_stop_bits                          C:\Users\Данила Кондрашов\AppData\Local\Temp\VMBuilds\LAB8_NEW\stm32duino_genericSTM32F103C6\Release\core.a(usb_cdcacm.c.o)
usb_cdcacm_is_transmitting                        C:\Users\Данила Кондрашов\AppData\Local\Temp\VMBuilds\LAB8_NEW\stm32duino_genericSTM32F103C6\Release\core.a(usb_cdcacm.c.o)
usb_cdcacm_peek                                   C:\Users\Данила Кондрашов\AppData\Local\Temp\VMBuilds\LAB8_NEW\stm32duino_genericSTM32F103C6\Release\core.a(usb_cdcacm.c.o)
usb_cdcacm_peek_char                              C:\Users\Данила Кондрашов\AppData\Local\Temp\VMBuilds\LAB8_NEW\stm32duino_genericSTM32F103C6\Release\core.a(usb_cdcacm.c.o)
usb_cdcacm_peek_ex                                C:\Users\Данила Кондрашов\AppData\Local\Temp\VMBuilds\LAB8_NEW\stm32duino_genericSTM32F103C6\Release\core.a(usb_cdcacm.c.o)
usb_cdcacm_putc                                   C:\Users\Данила Кондрашов\AppData\Local\Temp\VMBuilds\LAB8_NEW\stm32duino_genericSTM32F103C6\Release\core.a(usb_cdcacm.c.o)
usb_cdcacm_rx                                     C:\Users\Данила Кондрашов\AppData\Local\Temp\VMBuilds\LAB8_NEW\stm32duino_genericSTM32F103C6\Release\core.a(usb_cdcacm.c.o)
usb_cdcacm_set_hooks                              C:\Users\Данила Кондрашов\AppData\Local\Temp\VMBuilds\LAB8_NEW\stm32duino_genericSTM32F103C6\Release\core.a(usb_cdcacm.c.o)
usb_cdcacm_tx                                     C:\Users\Данила Кондрашов\AppData\Local\Temp\VMBuilds\LAB8_NEW\stm32duino_genericSTM32F103C6\Release\core.a(usb_cdcacm.c.o)
usb_cdcacm_tx_available                           C:\Users\Данила Кондрашов\AppData\Local\Temp\VMBuilds\LAB8_NEW\stm32duino_genericSTM32F103C6\Release\core.a(usb_cdcacm.c.o)
usb_init_usblib                                   C:\Users\Данила Кондрашов\AppData\Local\Temp\VMBuilds\LAB8_NEW\stm32duino_genericSTM32F103C6\Release\core.a(usb.c.o)
                                                  C:\Users\Данила Кондрашов\AppData\Local\Temp\VMBuilds\LAB8_NEW\stm32duino_genericSTM32F103C6\Release\core.a(usb_cdcacm.c.o)
usb_power_off                                     C:\Users\Данила Кондрашов\AppData\Local\Temp\VMBuilds\LAB8_NEW\stm32duino_genericSTM32F103C6\Release\core.a(usb.c.o)
                                                  C:\Users\Данила Кондрашов\AppData\Local\Temp\VMBuilds\LAB8_NEW\stm32duino_genericSTM32F103C6\Release\core.a(usb_cdcacm.c.o)
usb_set_ep_rx_count                               C:\Users\Данила Кондрашов\AppData\Local\Temp\VMBuilds\LAB8_NEW\stm32duino_genericSTM32F103C6\Release\core.a(usb_reg_map.c.o)
                                                  C:\Users\Данила Кондрашов\AppData\Local\Temp\VMBuilds\LAB8_NEW\stm32duino_genericSTM32F103C6\Release\core.a(usb_cdcacm.c.o)
vtable for HardwareSerial                         C:\Users\Данила Кондрашов\AppData\Local\Temp\VMBuilds\LAB8_NEW\stm32duino_genericSTM32F103C6\Release\core.a(HardwareSerial.cpp.o)
vtable for Print                                  C:\Users\Данила Кондрашов\AppData\Local\Temp\VMBuilds\LAB8_NEW\stm32duino_genericSTM32F103C6\Release\core.a(Print.cpp.o)
vtable for SoftWire                               Wire\SoftWire.cpp.o
vtable for Stream                                 C:\Users\Данила Кондрашов\AppData\Local\Temp\VMBuilds\LAB8_NEW\stm32duino_genericSTM32F103C6\Release\core.a(HardwareSerial.cpp.o)
vtable for TwoWire                                Wire\Wire.cpp.o
vtable for WireBase                               Wire\utility\WireBase.cpp.o
                                                  Wire\Wire.cpp.o
                                                  Wire\SoftWire.cpp.o
wInterrupt_Mask                                   C:\Users\Данила Кондрашов\AppData\Local\Temp\VMBuilds\LAB8_NEW\stm32duino_genericSTM32F103C6\Release\core.a(usb_init.c.o)
wait_for_state_change                             C:\Users\Данила Кондрашов\AppData\Local\Temp\VMBuilds\LAB8_NEW\stm32duino_genericSTM32F103C6\Release\core.a(i2c.c.o)
wirish::priv::board_reset_pll()                   C:\Users\Данила Кондрашов\AppData\Local\Temp\VMBCore\arduino16x\1ff78a0346523d7d91af874899f893a8\variant\wirish\boards_setup.cpp.o
                                                  C:\Users\Данила Кондрашов\AppData\Local\Temp\VMBCore\arduino16x\1ff78a0346523d7d91af874899f893a8\variant\wirish\boards.cpp.o
wirish::priv::board_setup_clock_prescalers()      C:\Users\Данила Кондрашов\AppData\Local\Temp\VMBCore\arduino16x\1ff78a0346523d7d91af874899f893a8\variant\wirish\boards_setup.cpp.o
                                                  C:\Users\Данила Кондрашов\AppData\Local\Temp\VMBCore\arduino16x\1ff78a0346523d7d91af874899f893a8\variant\wirish\boards.cpp.o
wirish::priv::board_setup_gpio()                  C:\Users\Данила Кондрашов\AppData\Local\Temp\VMBCore\arduino16x\1ff78a0346523d7d91af874899f893a8\variant\wirish\boards_setup.cpp.o
                                                  C:\Users\Данила Кондрашов\AppData\Local\Temp\VMBCore\arduino16x\1ff78a0346523d7d91af874899f893a8\variant\wirish\boards.cpp.o
wirish::priv::board_setup_usb()                   C:\Users\Данила Кондрашов\AppData\Local\Temp\VMBCore\arduino16x\1ff78a0346523d7d91af874899f893a8\variant\wirish\boards_setup.cpp.o
                                                  C:\Users\Данила Кондрашов\AppData\Local\Temp\VMBCore\arduino16x\1ff78a0346523d7d91af874899f893a8\variant\wirish\boards.cpp.o
wirish::priv::series_init()                       C:\Users\Данила Кондрашов\AppData\Local\Temp\VMBCore\arduino16x\1ff78a0346523d7d91af874899f893a8\variant\wirish\boards_setup.cpp.o
                                                  C:\Users\Данила Кондрашов\AppData\Local\Temp\VMBCore\arduino16x\1ff78a0346523d7d91af874899f893a8\variant\wirish\boards.cpp.o
wirish::priv::w_adc_pre                           C:\Users\Данила Кондрашов\AppData\Local\Temp\VMBCore\arduino16x\1ff78a0346523d7d91af874899f893a8\variant\wirish\boards_setup.cpp.o
                                                  C:\Users\Данила Кондрашов\AppData\Local\Temp\VMBCore\arduino16x\1ff78a0346523d7d91af874899f893a8\variant\wirish\boards.cpp.o
wirish::priv::w_adc_smp                           C:\Users\Данила Кондрашов\AppData\Local\Temp\VMBCore\arduino16x\1ff78a0346523d7d91af874899f893a8\variant\wirish\boards_setup.cpp.o
                                                  C:\Users\Данила Кондрашов\AppData\Local\Temp\VMBCore\arduino16x\1ff78a0346523d7d91af874899f893a8\variant\wirish\boards.cpp.o
wirish::priv::w_board_pll_cfg                     C:\Users\Данила Кондрашов\AppData\Local\Temp\VMBCore\arduino16x\1ff78a0346523d7d91af874899f893a8\variant\wirish\boards_setup.cpp.o
                                                  C:\Users\Данила Кондрашов\AppData\Local\Temp\VMBCore\arduino16x\1ff78a0346523d7d91af874899f893a8\variant\wirish\boards.cpp.o
yield                                             C:\Users\Данила Кондрашов\AppData\Local\Temp\VMBuilds\LAB8_NEW\stm32duino_genericSTM32F103C6\Release\core.a(hooks.c.o)
                                                  C:\Users\Данила Кондрашов\AppData\Local\Temp\VMBuilds\LAB8_NEW\stm32duino_genericSTM32F103C6\Release\core.a(wirish_time.cpp.o)
